
texstream.elf:     file format elf32-littlemips

Disassembly of section .text:

00100000 <_ftext>:
	...

00100008 <_start>:
  100008:	3c020019 	lui	v0,0x19
  10000c:	2442a680 	addiu	v0,v0,-22912
  100010:	3c03001a 	lui	v1,0x1a
  100014:	2463e080 	addiu	v1,v1,-8064

00100018 <loop>:
	...
  100024:	7c400000 	sq	zero,0(v0)
  100028:	0043082b 	sltu	at,v0,v1
  10002c:	1420fffa 	bnez	at,100018 <loop>
  100030:	24420010 	addiu	v0,v0,16
  100034:	3c020019 	lui	v0,0x19
  100038:	2442a844 	addiu	v0,v0,-22460
  10003c:	ac440000 	sw	a0,0(v0)
  100040:	3c040019 	lui	a0,0x19
  100044:	24842670 	addiu	a0,a0,9840
  100048:	3c050000 	lui	a1,0x0
  10004c:	24a5ffff 	addiu	a1,a1,-1
  100050:	3c060002 	lui	a2,0x2
  100054:	24c60000 	addiu	a2,a2,0
  100058:	3c070019 	lui	a3,0x19
  10005c:	24e7a700 	addiu	a3,a3,-22784
  100060:	3c080010 	lui	t0,0x10
  100064:	25080188 	addiu	t0,t0,392
  100068:	0080e02d 	move	gp,a0
  10006c:	2403003c 	li	v1,60
  100070:	0000000c 	syscall
  100074:	0040e82d 	move	sp,v0
  100078:	2403003d 	li	v1,61
  10007c:	3c04001a 	lui	a0,0x1a
  100080:	2484e080 	addiu	a0,a0,-8064
  100084:	3c050000 	lui	a1,0x0
  100088:	24a5ffff 	addiu	a1,a1,-1
  10008c:	0000000c 	syscall
  100090:	00000000 	nop
  100094:	24030064 	li	v1,100
  100098:	0000202d 	move	a0,zero
  10009c:	0000000c 	syscall
  1000a0:	3c020019 	lui	v0,0x19
  1000a4:	2442a700 	addiu	v0,v0,-22784
  1000a8:	8c430000 	lw	v1,0(v0)
  1000ac:	14600007 	bnez	v1,1000cc <loop+0xb4>
  1000b0:	00000000 	nop
  1000b4:	3c020019 	lui	v0,0x19
  1000b8:	2442a844 	addiu	v0,v0,-22460
  1000bc:	8c430000 	lw	v1,0(v0)
  1000c0:	50600004 	beqzl	v1,1000d4 <loop+0xbc>
  1000c4:	24040000 	li	a0,0
  1000c8:	24620004 	addiu	v0,v1,4
  1000cc:	8c440000 	lw	a0,0(v0)
  1000d0:	24450004 	addiu	a1,v0,4
  1000d4:	0c04295c 	jal	10a570 <_ps2sdk_args_parse>
  1000d8:	00000000 	nop
  1000dc:	0c042944 	jal	10a510 <_ps2sdk_libc_init>
  1000e0:	00000000 	nop
  1000e4:	3c080000 	lui	t0,0x0
  1000e8:	25080000 	addiu	t0,t0,0
  1000ec:	11000003 	beqz	t0,1000fc <loop+0xe4>
  1000f0:	00000000 	nop
  1000f4:	0100f809 	jalr	t0
  1000f8:	00000000 	nop
  1000fc:	42000038 	ei
  100100:	3c020019 	lui	v0,0x19
  100104:	2442a700 	addiu	v0,v0,-22784
  100108:	8c430000 	lw	v1,0(v0)
  10010c:	14600007 	bnez	v1,10012c <loop+0x114>
  100110:	00000000 	nop
  100114:	3c020019 	lui	v0,0x19
  100118:	2442a844 	addiu	v0,v0,-22460
  10011c:	8c430000 	lw	v1,0(v0)
  100120:	50600004 	beqzl	v1,100134 <loop+0x11c>
  100124:	24040000 	li	a0,0
  100128:	24620004 	addiu	v0,v1,4
  10012c:	8c440000 	lw	a0,0(v0)
  100130:	24450004 	addiu	a1,v0,4
  100134:	0c040064 	jal	100190 <main>
  100138:	00000000 	nop

0010013c <_exit>:
  10013c:	3c080000 	lui	t0,0x0
  100140:	25080000 	addiu	t0,t0,0
  100144:	11000003 	beqz	t0,100154 <_exit+0x18>
  100148:	00000000 	nop
  10014c:	0100f809 	jalr	t0
  100150:	00000000 	nop
  100154:	0c042950 	jal	10a540 <_ps2sdk_libc_deinit>
  100158:	00000000 	nop
  10015c:	3c040019 	lui	a0,0x19
  100160:	2484a844 	addiu	a0,a0,-22460
  100164:	8c850000 	lw	a1,0(a0)
  100168:	10a00005 	beqz	a1,100180 <_exit+0x44>
  10016c:	0040202d 	move	a0,v0
  100170:	8ca60000 	lw	a2,0(a1)
  100174:	acc00000 	sw	zero,0(a2)
  100178:	24030024 	li	v1,36
  10017c:	0000000c 	syscall
  100180:	24030004 	li	v1,4
  100184:	0000000c 	syscall

00100188 <_root>:
  100188:	24030023 	li	v1,35
  10018c:	0000000c 	syscall

00100190 <main>:
  100190:	27bdffa0 	addiu	sp,sp,-96
  100194:	24040002 	li	a0,2
  100198:	3c050010 	lui	a1,0x10
  10019c:	3c060004 	lui	a2,0x4
  1001a0:	ffbf0050 	sd	ra,80(sp)
  1001a4:	ffb10040 	sd	s1,64(sp)
  1001a8:	0c0405d0 	jal	101740 <gsKit_init_global_custom>
  1001ac:	ffb00030 	sd	s0,48(sp)
  1001b0:	24100001 	li	s0,1
  1001b4:	0040882d 	move	s1,v0
  1001b8:	ac500084 	sw	s0,132(v0)
  1001bc:	0000282d 	move	a1,zero
  1001c0:	2402000a 	li	v0,10
  1001c4:	0000302d 	move	a2,zero
  1001c8:	ae220088 	sw	v0,136(s1)
  1001cc:	0000402d 	move	t0,zero
  1001d0:	0000382d 	move	a3,zero
  1001d4:	0c0421a8 	jal	1086a0 <dmaKit_init>
  1001d8:	0000202d 	move	a0,zero
  1001dc:	0c0421cc 	jal	108730 <dmaKit_chan_init>
  1001e0:	24040002 	li	a0,2
  1001e4:	0c0421cc 	jal	108730 <dmaKit_chan_init>
  1001e8:	24040008 	li	a0,8
  1001ec:	0c0421cc 	jal	108730 <dmaKit_chan_init>
  1001f0:	24040009 	li	a0,9
  1001f4:	ae300098 	sw	s0,152(s1)
  1001f8:	0c040452 	jal	101148 <gsKit_init_screen>
  1001fc:	0220202d 	move	a0,s1
  100200:	3c060016 	lui	a2,0x16
  100204:	03a0282d 	move	a1,sp
  100208:	0220202d 	move	a0,s1
  10020c:	24c61f00 	addiu	a2,a2,7936
  100210:	0c041036 	jal	1040d8 <gsKit_texture_png>
  100214:	a3b00024 	sb	s0,36(sp)
  100218:	04420066 	bltzl	v0,1003b4 <main+0x224>
  10021c:	3c040016 	lui	a0,0x16
  100220:	0220202d 	move	a0,s1
  100224:	0c040442 	jal	101108 <gsKit_mode_switch>
  100228:	24050001 	li	a1,1
  10022c:	00000000 	nop
  100230:	3c0500ff 	lui	a1,0xff
  100234:	34a5ffff 	ori	a1,a1,0xffff
  100238:	0c04019c 	jal	100670 <gsKit_clear>
  10023c:	0220202d 	move	a0,s1
  100240:	24050044 	li	a1,68
  100244:	0220202d 	move	a0,s1
  100248:	0c0402e0 	jal	100b80 <gsKit_set_primalpha>
  10024c:	0000302d 	move	a2,zero
  100250:	24050003 	li	a1,3
  100254:	0c040214 	jal	100850 <gsKit_set_test>
  100258:	0220202d 	move	a0,s1
  10025c:	8fa50000 	lw	a1,0(sp)
  100260:	04a0004d 	bltz	a1,100398 <main+0x208>
  100264:	30a20001 	andi	v0,a1,0x1
  100268:	44858000 	mtc1	a1,$f16
  10026c:	00000000 	nop
  100270:	46808420 	cvt.s.w	$f16,$f16
  100274:	3c01439b 	lui	at,0x439b
  100278:	44810000 	mtc1	at,$f0
  10027c:	8fa40004 	lw	a0,4(sp)
  100280:	0480003d 	bltz	a0,100378 <main+0x1e8>
  100284:	46008400 	add.s	$f16,$f16,$f0
  100288:	44841000 	mtc1	a0,$f2
  10028c:	00000000 	nop
  100290:	468010a0 	cvt.s.w	$f2,$f2
  100294:	3c014248 	lui	at,0x4248
  100298:	44810000 	mtc1	at,$f0
  10029c:	04a0002e 	bltz	a1,100358 <main+0x1c8>
  1002a0:	46001080 	add.s	$f2,$f2,$f0
  1002a4:	44859000 	mtc1	a1,$f18
  1002a8:	00000000 	nop
  1002ac:	468094a0 	cvt.s.w	$f18,$f18
  1002b0:	04800021 	bltz	a0,100338 <main+0x1a8>
  1002b4:	00041842 	srl	v1,a0,0x1
  1002b8:	44840000 	mtc1	a0,$f0
  1002bc:	00000000 	nop
  1002c0:	46800020 	cvt.s.w	$f0,$f0
  1002c4:	44807000 	mtc1	zero,$f14
  1002c8:	46001446 	mov.s	$f17,$f2
  1002cc:	3c01439b 	lui	at,0x439b
  1002d0:	44816000 	mtc1	at,$f12
  1002d4:	460004c6 	mov.s	$f19,$f0
  1002d8:	3c014248 	lui	at,0x4248
  1002dc:	44816800 	mtc1	at,$f13
  1002e0:	460073c6 	mov.s	$f15,$f14
  1002e4:	24070003 	li	a3,3
  1002e8:	34088080 	li	t0,0x8080
  1002ec:	00084438 	dsll	t0,t0,0x10
  1002f0:	35088080 	ori	t0,t0,0x8080
  1002f4:	03a0282d 	move	a1,sp
  1002f8:	24060003 	li	a2,3
  1002fc:	0c0416b8 	jal	105ae0 <gsKit_prim_sprite_texture_3d>
  100300:	0220202d 	move	a0,s1
  100304:	24050004 	li	a1,4
  100308:	0c040214 	jal	100850 <gsKit_set_test>
  10030c:	0220202d 	move	a0,s1
  100310:	24050001 	li	a1,1
  100314:	0220202d 	move	a0,s1
  100318:	0c0402e0 	jal	100b80 <gsKit_set_primalpha>
  10031c:	0000302d 	move	a2,zero
  100320:	0c040110 	jal	100440 <gsKit_sync_flip>
  100324:	0220202d 	move	a0,s1
  100328:	0c040422 	jal	101088 <gsKit_queue_exec>
  10032c:	0220202d 	move	a0,s1
  100330:	1000ffbf 	b	100230 <main+0xa0>
  100334:	00000000 	nop
  100338:	30820001 	andi	v0,a0,0x1
  10033c:	00431025 	or	v0,v0,v1
  100340:	44820000 	mtc1	v0,$f0
  100344:	00000000 	nop
  100348:	46800020 	cvt.s.w	$f0,$f0
  10034c:	1000ffdd 	b	1002c4 <main+0x134>
  100350:	46000000 	add.s	$f0,$f0,$f0
  100354:	00000000 	nop
  100358:	00051842 	srl	v1,a1,0x1
  10035c:	30a20001 	andi	v0,a1,0x1
  100360:	00431025 	or	v0,v0,v1
  100364:	44829000 	mtc1	v0,$f18
  100368:	00000000 	nop
  10036c:	468094a0 	cvt.s.w	$f18,$f18
  100370:	1000ffcf 	b	1002b0 <main+0x120>
  100374:	46129480 	add.s	$f18,$f18,$f18
  100378:	30820001 	andi	v0,a0,0x1
  10037c:	00041842 	srl	v1,a0,0x1
  100380:	00431025 	or	v0,v0,v1
  100384:	44821000 	mtc1	v0,$f2
  100388:	00000000 	nop
  10038c:	468010a0 	cvt.s.w	$f2,$f2
  100390:	1000ffc0 	b	100294 <main+0x104>
  100394:	46021080 	add.s	$f2,$f2,$f2
  100398:	00051842 	srl	v1,a1,0x1
  10039c:	00431025 	or	v0,v0,v1
  1003a0:	44828000 	mtc1	v0,$f16
  1003a4:	00000000 	nop
  1003a8:	46808420 	cvt.s.w	$f16,$f16
  1003ac:	1000ffb1 	b	100274 <main+0xe4>
  1003b0:	46108400 	add.s	$f16,$f16,$f16
  1003b4:	0c042988 	jal	10a620 <printf>
  1003b8:	24841f18 	addiu	a0,a0,7960
  1003bc:	1000ff99 	b	100224 <main+0x94>
  1003c0:	0220202d 	move	a0,s1
  1003c4:	00000000 	nop

001003c8 <gsKit_vram_alloc>:
  1003c8:	27bdfff0 	addiu	sp,sp,-16
  1003cc:	0080382d 	move	a3,a0
  1003d0:	ffbf0000 	sd	ra,0(sp)
  1003d4:	30c600ff 	andi	a2,a2,0xff
  1003d8:	24a41fff 	addiu	a0,a1,8191
  1003dc:	24a500ff 	addiu	a1,a1,255
  1003e0:	14c00013 	bnez	a2,100430 <gsKit_vram_alloc+0x68>
  1003e4:	8ce30008 	lw	v1,8(a3)
  1003e8:	2402e000 	li	v0,-8192
  1003ec:	00822824 	and	a1,a0,v0
  1003f0:	3c02003f 	lui	v0,0x3f
  1003f4:	00652821 	addu	a1,v1,a1
  1003f8:	3442ffff 	ori	v0,v0,0xffff
  1003fc:	3c040016 	lui	a0,0x16
  100400:	0045102b 	sltu	v0,v0,a1
  100404:	14400006 	bnez	v0,100420 <gsKit_vram_alloc+0x58>
  100408:	24841f30 	addiu	a0,a0,7984
  10040c:	ace50008 	sw	a1,8(a3)
  100410:	dfbf0000 	ld	ra,0(sp)
  100414:	0060102d 	move	v0,v1
  100418:	03e00008 	jr	ra
  10041c:	27bd0010 	addiu	sp,sp,16
  100420:	0c042988 	jal	10a620 <printf>
  100424:	00000000 	nop
  100428:	1000fff9 	b	100410 <gsKit_vram_alloc+0x48>
  10042c:	0000182d 	move	v1,zero
  100430:	2402ff00 	li	v0,-256
  100434:	1000ffee 	b	1003f0 <gsKit_vram_alloc+0x28>
  100438:	00a22824 	and	a1,a1,v0
  10043c:	00000000 	nop

00100440 <gsKit_sync_flip>:
  100440:	27bdffe0 	addiu	sp,sp,-32
  100444:	ffb00000 	sd	s0,0(sp)
  100448:	ffbf0010 	sd	ra,16(sp)
  10044c:	9082001f 	lbu	v0,31(a0)
  100450:	10400011 	beqz	v0,100498 <gsKit_sync_flip+0x58>
  100454:	0080802d 	move	s0,a0
  100458:	9203001c 	lbu	v1,28(s0)
  10045c:	24020001 	li	v0,1
  100460:	10620005 	beq	v1,v0,100478 <gsKit_sync_flip+0x38>
  100464:	00000000 	nop
  100468:	dfbf0010 	ld	ra,16(sp)
  10046c:	dfb00000 	ld	s0,0(sp)
  100470:	03e00008 	jr	ra
  100474:	27bd0020 	addiu	sp,sp,32
  100478:	3c021200 	lui	v0,0x1200
  10047c:	90421001 	lbu	v0,4097(v0)
  100480:	0002117a 	dsrl	v0,v0,0x5
  100484:	30420001 	andi	v0,v0,0x1
  100488:	304200ff 	andi	v0,v0,0xff
  10048c:	1000fff6 	b	100468 <gsKit_sync_flip+0x28>
  100490:	a202001d 	sb	v0,29(s0)
  100494:	00000000 	nop
  100498:	0c04018e 	jal	100638 <gsKit_vsync>
  10049c:	00000000 	nop
  1004a0:	24020001 	li	v0,1
  1004a4:	9203000c 	lbu	v1,12(s0)
  1004a8:	3c0a1200 	lui	t2,0x1200
  1004ac:	354a0090 	ori	t2,t2,0x90
  1004b0:	1462ffe9 	bne	v1,v0,100458 <gsKit_sync_flip+0x18>
  1004b4:	0200202d 	move	a0,s0
  1004b8:	8e070020 	lw	a3,32(s0)
  1004bc:	8e050024 	lw	a1,36(s0)
  1004c0:	30e30001 	andi	v1,a3,0x1
  1004c4:	8e09008c 	lw	t1,140(s0)
  1004c8:	00031880 	sll	v1,v1,0x2
  1004cc:	24a8003f 	addiu	t0,a1,63
  1004d0:	00701821 	addu	v1,v1,s0
  1004d4:	28a60000 	slti	a2,a1,0
  1004d8:	8c620010 	lw	v0,16(v1)
  1004dc:	0106280b 	movn	a1,t0,a2
  1004e0:	00052983 	sra	a1,a1,0x6
  1004e4:	8e030084 	lw	v1,132(s0)
  1004e8:	00021342 	srl	v0,v0,0xd
  1004ec:	00052a78 	dsll	a1,a1,0x9
  1004f0:	0002103c 	dsll32	v0,v0,0x0
  1004f4:	00031bf8 	dsll	v1,v1,0xf
  1004f8:	0002103e 	dsrl32	v0,v0,0x0
  1004fc:	38e70001 	xori	a3,a3,0x1
  100500:	00451025 	or	v0,v0,a1
  100504:	39290001 	xori	t1,t1,0x1
  100508:	00431025 	or	v0,v0,v1
  10050c:	ae070020 	sw	a3,32(s0)
  100510:	ae09008c 	sw	t1,140(s0)
  100514:	0c04014a 	jal	100528 <gsKit_setactive>
  100518:	fd420000 	sd	v0,0(t2)
  10051c:	1000ffcf 	b	10045c <gsKit_sync_flip+0x1c>
  100520:	9203001c 	lbu	v1,28(s0)
  100524:	00000000 	nop

00100528 <gsKit_setactive>:
  100528:	27bdffe0 	addiu	sp,sp,-32
  10052c:	ffbf0010 	sd	ra,16(sp)
  100530:	ffb00000 	sd	s0,0(sp)
  100534:	8c820020 	lw	v0,32(a0)
  100538:	8c830024 	lw	v1,36(a0)
  10053c:	30420001 	andi	v0,v0,0x1
  100540:	8c900080 	lw	s0,128(a0)
  100544:	00021080 	sll	v0,v0,0x2
  100548:	246a003f 	addiu	t2,v1,63
  10054c:	00441021 	addu	v0,v0,a0
  100550:	28650000 	slti	a1,v1,0
  100554:	8c460010 	lw	a2,16(v0)
  100558:	2469ffff 	addiu	t1,v1,-1
  10055c:	0145180b 	movn	v1,t2,a1
  100560:	8c870028 	lw	a3,40(a0)
  100564:	3c021000 	lui	v0,0x1000
  100568:	0002103c 	dsll32	v0,v0,0x0
  10056c:	34428004 	ori	v0,v0,0x8004
  100570:	00063342 	srl	a2,a2,0xd
  100574:	00031983 	sra	v1,v1,0x6
  100578:	8c880084 	lw	t0,132(a0)
  10057c:	fe020000 	sd	v0,0(s0)
  100580:	0006303c 	dsll32	a2,a2,0x0
  100584:	24020040 	li	v0,64
  100588:	fe020018 	sd	v0,24(s0)
  10058c:	00031c38 	dsll	v1,v1,0x10
  100590:	2402004c 	li	v0,76
  100594:	24e7ffff 	addiu	a3,a3,-1
  100598:	0006303e 	dsrl32	a2,a2,0x0
  10059c:	00073c3c 	dsll32	a3,a3,0x10
  1005a0:	00084638 	dsll	t0,t0,0x18
  1005a4:	fe020028 	sd	v0,40(s0)
  1005a8:	00c33025 	or	a2,a2,v1
  1005ac:	00094c38 	dsll	t1,t1,0x10
  1005b0:	24020041 	li	v0,65
  1005b4:	00c83025 	or	a2,a2,t0
  1005b8:	01274825 	or	t1,t1,a3
  1005bc:	2403000e 	li	v1,14
  1005c0:	fe020038 	sd	v0,56(s0)
  1005c4:	24040002 	li	a0,2
  1005c8:	2402004d 	li	v0,77
  1005cc:	fe030008 	sd	v1,8(s0)
  1005d0:	fe090030 	sd	t1,48(s0)
  1005d4:	0000282d 	move	a1,zero
  1005d8:	fe090010 	sd	t1,16(s0)
  1005dc:	fe060040 	sd	a2,64(s0)
  1005e0:	fe060020 	sd	a2,32(s0)
  1005e4:	0c04204a 	jal	108128 <dmaKit_wait>
  1005e8:	fe020048 	sd	v0,72(s0)
  1005ec:	24040002 	li	a0,2
  1005f0:	0200282d 	move	a1,s0
  1005f4:	0c0420b8 	jal	1082e0 <dmaKit_send_ucab>
  1005f8:	24060005 	li	a2,5
  1005fc:	dfb00000 	ld	s0,0(sp)
  100600:	dfbf0010 	ld	ra,16(sp)
  100604:	03e00008 	jr	ra
  100608:	27bd0020 	addiu	sp,sp,32
  10060c:	00000000 	nop

00100610 <gsKit_finish>:
  100610:	3c031200 	lui	v1,0x1200
  100614:	34631000 	ori	v1,v1,0x1000
  100618:	dc620000 	ld	v0,0(v1)
  10061c:	0002107a 	dsrl	v0,v0,0x1
  100620:	30420001 	andi	v0,v0,0x1
  100624:	00000000 	nop
  100628:	1040fffb 	beqz	v0,100618 <gsKit_finish+0x8>
  10062c:	00000000 	nop
  100630:	03e00008 	jr	ra
  100634:	00000000 	nop

00100638 <gsKit_vsync>:
  100638:	3c031200 	lui	v1,0x1200
  10063c:	34631000 	ori	v1,v1,0x1000
  100640:	dc620000 	ld	v0,0(v1)
  100644:	0060202d 	move	a0,v1
  100648:	30420008 	andi	v0,v0,0x8
  10064c:	fc620000 	sd	v0,0(v1)
  100650:	dc820000 	ld	v0,0(a0)
  100654:	30420008 	andi	v0,v0,0x8
  100658:	00000000 	nop
  10065c:	1040fffc 	beqz	v0,100650 <gsKit_vsync+0x18>
  100660:	00000000 	nop
  100664:	03e00008 	jr	ra
  100668:	00000000 	nop
  10066c:	00000000 	nop

00100670 <gsKit_clear>:
  100670:	27bdff90 	addiu	sp,sp,-112
  100674:	ffb40040 	sd	s4,64(sp)
  100678:	ffb30030 	sd	s3,48(sp)
  10067c:	00a0982d 	move	s3,a1
  100680:	ffb20020 	sd	s2,32(sp)
  100684:	24050001 	li	a1,1
  100688:	ffb10010 	sd	s1,16(sp)
  10068c:	0080902d 	move	s2,a0
  100690:	ffbf0060 	sd	ra,96(sp)
  100694:	ffb50050 	sd	s5,80(sp)
  100698:	ffb00000 	sd	s0,0(sp)
  10069c:	8c820048 	lw	v0,72(a0)
  1006a0:	0c040214 	jal	100850 <gsKit_set_test>
  1006a4:	90550007 	lbu	s5,7(v0)
  1006a8:	8e440024 	lw	a0,36(s2)
  1006ac:	0000282d 	move	a1,zero
  1006b0:	28830000 	slti	v1,a0,0
  1006b4:	2482003f 	addiu	v0,a0,63
  1006b8:	0083100a 	movz	v0,a0,v1
  1006bc:	00021183 	sra	v0,v0,0x6
  1006c0:	24430001 	addiu	v1,v0,1
  1006c4:	00021180 	sll	v0,v0,0x6
  1006c8:	307100ff 	andi	s1,v1,0xff
  1006cc:	00822023 	subu	a0,a0,v0
  1006d0:	0220182d 	move	v1,s1
  1006d4:	2622ffff 	addiu	v0,s1,-1
  1006d8:	309400ff 	andi	s4,a0,0xff
  1006dc:	1060001e 	beqz	v1,100758 <gsKit_clear+0xe8>
  1006e0:	305100ff 	andi	s1,v0,0xff
  1006e4:	00000000 	nop
  1006e8:	30a30001 	andi	v1,a1,0x1
  1006ec:	00051042 	srl	v0,a1,0x1
  1006f0:	04a00051 	bltz	a1,100838 <gsKit_clear+0x1c8>
  1006f4:	00621825 	or	v1,v1,v0
  1006f8:	44856000 	mtc1	a1,$f12
  1006fc:	00000000 	nop
  100700:	46806320 	cvt.s.w	$f12,$f12
  100704:	24b00040 	addiu	s0,a1,64
  100708:	32030001 	andi	v1,s0,0x1
  10070c:	00101042 	srl	v0,s0,0x1
  100710:	06000043 	bltz	s0,100820 <gsKit_clear+0x1b0>
  100714:	00621825 	or	v1,v1,v0
  100718:	44907000 	mtc1	s0,$f14
  10071c:	00000000 	nop
  100720:	468073a0 	cvt.s.w	$f14,$f14
  100724:	c6400028 	lwc1	$f0,40(s2)
  100728:	46800020 	cvt.s.w	$f0,$f0
  10072c:	0000282d 	move	a1,zero
  100730:	44806800 	mtc1	zero,$f13
  100734:	0240202d 	move	a0,s2
  100738:	0260302d 	move	a2,s3
  10073c:	0c040a0c 	jal	102830 <gsKit_prim_sprite>
  100740:	460003c6 	mov.s	$f15,$f0
  100744:	0200282d 	move	a1,s0
  100748:	0220182d 	move	v1,s1
  10074c:	2622ffff 	addiu	v0,s1,-1
  100750:	1460ffe5 	bnez	v1,1006e8 <gsKit_clear+0x78>
  100754:	305100ff 	andi	s1,v0,0xff
  100758:	52800015 	beqzl	s4,1007b0 <gsKit_clear+0x140>
  10075c:	8e420048 	lw	v0,72(s2)
  100760:	04a00027 	bltz	a1,100800 <gsKit_clear+0x190>
  100764:	30a20001 	andi	v0,a1,0x1
  100768:	44856000 	mtc1	a1,$f12
  10076c:	00000000 	nop
  100770:	46806320 	cvt.s.w	$f12,$f12
  100774:	02851021 	addu	v0,s4,a1
  100778:	0440001a 	bltz	v0,1007e4 <gsKit_clear+0x174>
  10077c:	00021842 	srl	v1,v0,0x1
  100780:	44827000 	mtc1	v0,$f14
  100784:	00000000 	nop
  100788:	468073a0 	cvt.s.w	$f14,$f14
  10078c:	c6400028 	lwc1	$f0,40(s2)
  100790:	46800020 	cvt.s.w	$f0,$f0
  100794:	0260302d 	move	a2,s3
  100798:	44806800 	mtc1	zero,$f13
  10079c:	0240202d 	move	a0,s2
  1007a0:	0000282d 	move	a1,zero
  1007a4:	0c040a0c 	jal	102830 <gsKit_prim_sprite>
  1007a8:	460003c6 	mov.s	$f15,$f0
  1007ac:	8e420048 	lw	v0,72(s2)
  1007b0:	0240202d 	move	a0,s2
  1007b4:	0000282d 	move	a1,zero
  1007b8:	0c040214 	jal	100850 <gsKit_set_test>
  1007bc:	a0550007 	sb	s5,7(v0)
  1007c0:	dfb00000 	ld	s0,0(sp)
  1007c4:	dfbf0060 	ld	ra,96(sp)
  1007c8:	dfb50050 	ld	s5,80(sp)
  1007cc:	dfb40040 	ld	s4,64(sp)
  1007d0:	dfb30030 	ld	s3,48(sp)
  1007d4:	dfb20020 	ld	s2,32(sp)
  1007d8:	dfb10010 	ld	s1,16(sp)
  1007dc:	03e00008 	jr	ra
  1007e0:	27bd0070 	addiu	sp,sp,112
  1007e4:	30420001 	andi	v0,v0,0x1
  1007e8:	00431025 	or	v0,v0,v1
  1007ec:	44827000 	mtc1	v0,$f14
  1007f0:	00000000 	nop
  1007f4:	468073a0 	cvt.s.w	$f14,$f14
  1007f8:	1000ffe4 	b	10078c <gsKit_clear+0x11c>
  1007fc:	460e7380 	add.s	$f14,$f14,$f14
  100800:	00051842 	srl	v1,a1,0x1
  100804:	00431025 	or	v0,v0,v1
  100808:	44826000 	mtc1	v0,$f12
  10080c:	00000000 	nop
  100810:	46806320 	cvt.s.w	$f12,$f12
  100814:	1000ffd7 	b	100774 <gsKit_clear+0x104>
  100818:	460c6300 	add.s	$f12,$f12,$f12
  10081c:	00000000 	nop
  100820:	44837000 	mtc1	v1,$f14
  100824:	00000000 	nop
  100828:	468073a0 	cvt.s.w	$f14,$f14
  10082c:	1000ffbd 	b	100724 <gsKit_clear+0xb4>
  100830:	460e7380 	add.s	$f14,$f14,$f14
  100834:	00000000 	nop
  100838:	44836000 	mtc1	v1,$f12
  10083c:	00000000 	nop
  100840:	46806320 	cvt.s.w	$f12,$f12
  100844:	1000ffaf 	b	100704 <gsKit_clear+0x94>
  100848:	460c6300 	add.s	$f12,$f12,$f12
  10084c:	00000000 	nop

00100850 <gsKit_set_test>:
  100850:	24030001 	li	v1,1
  100854:	30a500ff 	andi	a1,a1,0xff
  100858:	10a3006b 	beq	a1,v1,100a08 <gsKit_set_test+0x1b8>
  10085c:	0080402d 	move	t0,a0
  100860:	24020002 	li	v0,2
  100864:	10a20064 	beq	a1,v0,1009f8 <gsKit_set_test+0x1a8>
  100868:	24020003 	li	v0,3
  10086c:	10a2005e 	beq	a1,v0,1009e8 <gsKit_set_test+0x198>
  100870:	24020004 	li	v0,4
  100874:	10a20058 	beq	a1,v0,1009d8 <gsKit_set_test+0x188>
  100878:	24020005 	li	v0,5
  10087c:	10a20053 	beq	a1,v0,1009cc <gsKit_set_test+0x17c>
  100880:	24020006 	li	v0,6
  100884:	50a2004f 	beql	a1,v0,1009c4 <gsKit_set_test+0x174>
  100888:	8c820048 	lw	v0,72(a0)
  10088c:	00000000 	nop
  100890:	8d070050 	lw	a3,80(t0)
  100894:	3402fffe 	li	v0,0xfffe
  100898:	8ce40024 	lw	a0,36(a3)
  10089c:	24830001 	addiu	v1,a0,1
  1008a0:	0043102b 	sltu	v0,v0,v1
  1008a4:	1040000c 	beqz	v0,1008d8 <gsKit_set_test+0x88>
  1008a8:	240a000e 	li	t2,14
  1008ac:	3c021000 	lui	v0,0x1000
  1008b0:	8ce50008 	lw	a1,8(a3)
  1008b4:	00821025 	or	v0,a0,v0
  1008b8:	ace00024 	sw	zero,36(a3)
  1008bc:	8ce40020 	lw	a0,32(a3)
  1008c0:	0002103c 	dsll32	v0,v0,0x0
  1008c4:	24a30010 	addiu	v1,a1,16
  1008c8:	0002103e 	dsrl32	v0,v0,0x0
  1008cc:	ace30008 	sw	v1,8(a3)
  1008d0:	fc820000 	sd	v0,0(a0)
  1008d4:	ace50020 	sw	a1,32(a3)
  1008d8:	8ce30014 	lw	v1,20(a3)
  1008dc:	2402000b 	li	v0,11
  1008e0:	50620009 	beql	v1,v0,100908 <gsKit_set_test+0xb8>
  1008e4:	ace0001c 	sw	zero,28(a3)
  1008e8:	506a0007 	beql	v1,t2,100908 <gsKit_set_test+0xb8>
  1008ec:	ace0001c 	sw	zero,28(a3)
  1008f0:	8ce20018 	lw	v0,24(a3)
  1008f4:	8ce3001c 	lw	v1,28(a3)
  1008f8:	dc440000 	ld	a0,0(v0)
  1008fc:	00641825 	or	v1,v1,a0
  100900:	fc430000 	sd	v1,0(v0)
  100904:	ace0001c 	sw	zero,28(a3)
  100908:	8d020050 	lw	v0,80(t0)
  10090c:	8ce60008 	lw	a2,8(a3)
  100910:	8c490008 	lw	t1,8(v0)
  100914:	8c43001c 	lw	v1,28(v0)
  100918:	8c440024 	lw	a0,36(v0)
  10091c:	25250020 	addiu	a1,t1,32
  100920:	24630001 	addiu	v1,v1,1
  100924:	ac4a0014 	sw	t2,20(v0)
  100928:	24840002 	addiu	a0,a0,2
  10092c:	ac43001c 	sw	v1,28(v0)
  100930:	ac440024 	sw	a0,36(v0)
  100934:	2403000e 	li	v1,14
  100938:	ac450008 	sw	a1,8(v0)
  10093c:	3c021000 	lui	v0,0x1000
  100940:	0002103c 	dsll32	v0,v0,0x0
  100944:	34428001 	ori	v0,v0,0x8001
  100948:	8d040048 	lw	a0,72(t0)
  10094c:	ace60018 	sw	a2,24(a3)
  100950:	fd220000 	sd	v0,0(t1)
  100954:	fd230008 	sd	v1,8(t1)
  100958:	8d08008c 	lw	t0,140(t0)
  10095c:	90830001 	lbu	v1,1(a0)
  100960:	90820000 	lbu	v0,0(a0)
  100964:	25080047 	addiu	t0,t0,71
  100968:	90850002 	lbu	a1,2(a0)
  10096c:	00031878 	dsll	v1,v1,0x1
  100970:	90860003 	lbu	a2,3(a0)
  100974:	00431025 	or	v0,v0,v1
  100978:	00052938 	dsll	a1,a1,0x4
  10097c:	90830004 	lbu	v1,4(a0)
  100980:	90870005 	lbu	a3,5(a0)
  100984:	00451025 	or	v0,v0,a1
  100988:	00063338 	dsll	a2,a2,0xc
  10098c:	00031bb8 	dsll	v1,v1,0xe
  100990:	90850006 	lbu	a1,6(a0)
  100994:	00461025 	or	v0,v0,a2
  100998:	00431025 	or	v0,v0,v1
  10099c:	00073bf8 	dsll	a3,a3,0xf
  1009a0:	90860007 	lbu	a2,7(a0)
  1009a4:	00052c38 	dsll	a1,a1,0x10
  1009a8:	00471025 	or	v0,v0,a3
  1009ac:	fd280018 	sd	t0,24(t1)
  1009b0:	00063478 	dsll	a2,a2,0x11
  1009b4:	00451025 	or	v0,v0,a1
  1009b8:	00461025 	or	v0,v0,a2
  1009bc:	03e00008 	jr	ra
  1009c0:	fd220010 	sd	v0,16(t1)
  1009c4:	1000ffb2 	b	100890 <gsKit_set_test+0x40>
  1009c8:	a0430004 	sb	v1,4(v0)
  1009cc:	8c820048 	lw	v0,72(a0)
  1009d0:	1000ffaf 	b	100890 <gsKit_set_test+0x40>
  1009d4:	a0400004 	sb	zero,4(v0)
  1009d8:	8c820048 	lw	v0,72(a0)
  1009dc:	1000ffac 	b	100890 <gsKit_set_test+0x40>
  1009e0:	a0430000 	sb	v1,0(v0)
  1009e4:	00000000 	nop
  1009e8:	8c820048 	lw	v0,72(a0)
  1009ec:	1000ffa8 	b	100890 <gsKit_set_test+0x40>
  1009f0:	a0400000 	sb	zero,0(v0)
  1009f4:	00000000 	nop
  1009f8:	8c820048 	lw	v0,72(a0)
  1009fc:	1000ffa4 	b	100890 <gsKit_set_test+0x40>
  100a00:	a0450007 	sb	a1,7(v0)
  100a04:	00000000 	nop
  100a08:	8c820048 	lw	v0,72(a0)
  100a0c:	1000ffa0 	b	100890 <gsKit_set_test+0x40>
  100a10:	a0430007 	sb	v1,7(v0)
  100a14:	00000000 	nop

00100a18 <gsKit_set_clamp>:
  100a18:	30a500ff 	andi	a1,a1,0xff
  100a1c:	14a0004c 	bnez	a1,100b50 <gsKit_set_clamp+0x138>
  100a20:	0080402d 	move	t0,a0
  100a24:	8c82004c 	lw	v0,76(a0)
  100a28:	a0400000 	sb	zero,0(v0)
  100a2c:	8c83004c 	lw	v1,76(a0)
  100a30:	a0600001 	sb	zero,1(v1)
  100a34:	8d070050 	lw	a3,80(t0)
  100a38:	3402fffe 	li	v0,0xfffe
  100a3c:	8ce40024 	lw	a0,36(a3)
  100a40:	24830001 	addiu	v1,a0,1
  100a44:	0043102b 	sltu	v0,v0,v1
  100a48:	1040000c 	beqz	v0,100a7c <gsKit_set_clamp+0x64>
  100a4c:	240a000e 	li	t2,14
  100a50:	3c021000 	lui	v0,0x1000
  100a54:	8ce50008 	lw	a1,8(a3)
  100a58:	00821025 	or	v0,a0,v0
  100a5c:	ace00024 	sw	zero,36(a3)
  100a60:	8ce40020 	lw	a0,32(a3)
  100a64:	0002103c 	dsll32	v0,v0,0x0
  100a68:	24a30010 	addiu	v1,a1,16
  100a6c:	0002103e 	dsrl32	v0,v0,0x0
  100a70:	ace30008 	sw	v1,8(a3)
  100a74:	fc820000 	sd	v0,0(a0)
  100a78:	ace50020 	sw	a1,32(a3)
  100a7c:	8ce30014 	lw	v1,20(a3)
  100a80:	2402000b 	li	v0,11
  100a84:	50620009 	beql	v1,v0,100aac <gsKit_set_clamp+0x94>
  100a88:	8d020050 	lw	v0,80(t0)
  100a8c:	506a0007 	beql	v1,t2,100aac <gsKit_set_clamp+0x94>
  100a90:	8d020050 	lw	v0,80(t0)
  100a94:	8ce20018 	lw	v0,24(a3)
  100a98:	8ce3001c 	lw	v1,28(a3)
  100a9c:	dc440000 	ld	a0,0(v0)
  100aa0:	00641825 	or	v1,v1,a0
  100aa4:	fc430000 	sd	v1,0(v0)
  100aa8:	8d020050 	lw	v0,80(t0)
  100aac:	ace0001c 	sw	zero,28(a3)
  100ab0:	8c490008 	lw	t1,8(v0)
  100ab4:	8c43001c 	lw	v1,28(v0)
  100ab8:	8c440024 	lw	a0,36(v0)
  100abc:	25250020 	addiu	a1,t1,32
  100ac0:	8ce60008 	lw	a2,8(a3)
  100ac4:	24630001 	addiu	v1,v1,1
  100ac8:	24840002 	addiu	a0,a0,2
  100acc:	ac43001c 	sw	v1,28(v0)
  100ad0:	ac4a0014 	sw	t2,20(v0)
  100ad4:	2403000e 	li	v1,14
  100ad8:	ac440024 	sw	a0,36(v0)
  100adc:	ac450008 	sw	a1,8(v0)
  100ae0:	3c021000 	lui	v0,0x1000
  100ae4:	0002103c 	dsll32	v0,v0,0x0
  100ae8:	34428001 	ori	v0,v0,0x8001
  100aec:	ace60018 	sw	a2,24(a3)
  100af0:	fd220000 	sd	v0,0(t1)
  100af4:	8d07004c 	lw	a3,76(t0)
  100af8:	fd230008 	sd	v1,8(t1)
  100afc:	8ce40004 	lw	a0,4(a3)
  100b00:	90e30001 	lbu	v1,1(a3)
  100b04:	90e20000 	lbu	v0,0(a3)
  100b08:	00042138 	dsll	a0,a0,0x4
  100b0c:	000318b8 	dsll	v1,v1,0x2
  100b10:	8ce50008 	lw	a1,8(a3)
  100b14:	00431025 	or	v0,v0,v1
  100b18:	8ce6000c 	lw	a2,12(a3)
  100b1c:	00441025 	or	v0,v0,a0
  100b20:	00052bb8 	dsll	a1,a1,0xe
  100b24:	8ce30010 	lw	v1,16(a3)
  100b28:	00451025 	or	v0,v0,a1
  100b2c:	8d08008c 	lw	t0,140(t0)
  100b30:	00063638 	dsll	a2,a2,0x18
  100b34:	00461025 	or	v0,v0,a2
  100b38:	000318bc 	dsll32	v1,v1,0x2
  100b3c:	25080008 	addiu	t0,t0,8
  100b40:	00431025 	or	v0,v0,v1
  100b44:	fd280018 	sd	t0,24(t1)
  100b48:	03e00008 	jr	ra
  100b4c:	fd220010 	sd	v0,16(t1)
  100b50:	24020001 	li	v0,1
  100b54:	10a20005 	beq	a1,v0,100b6c <gsKit_set_clamp+0x154>
  100b58:	24020002 	li	v0,2
  100b5c:	10a20003 	beq	a1,v0,100b6c <gsKit_set_clamp+0x154>
  100b60:	24020003 	li	v0,3
  100b64:	54a2ffb4 	bnel	a1,v0,100a38 <gsKit_set_clamp+0x20>
  100b68:	8d070050 	lw	a3,80(t0)
  100b6c:	8d02004c 	lw	v0,76(t0)
  100b70:	a0450000 	sb	a1,0(v0)
  100b74:	8d03004c 	lw	v1,76(t0)
  100b78:	1000ffae 	b	100a34 <gsKit_set_clamp+0x1c>
  100b7c:	a0650001 	sb	a1,1(v1)

00100b80 <gsKit_set_primalpha>:
  100b80:	a08600a8 	sb	a2,168(a0)
  100b84:	0080382d 	move	a3,a0
  100b88:	8c860050 	lw	a2,80(a0)
  100b8c:	3c031000 	lui	v1,0x1000
  100b90:	3402fffe 	li	v0,0xfffe
  100b94:	fce500a0 	sd	a1,160(a3)
  100b98:	8cc40024 	lw	a0,36(a2)
  100b9c:	2408000e 	li	t0,14
  100ba0:	00831825 	or	v1,a0,v1
  100ba4:	24840002 	addiu	a0,a0,2
  100ba8:	0003183c 	dsll32	v1,v1,0x0
  100bac:	0044102b 	sltu	v0,v0,a0
  100bb0:	10400008 	beqz	v0,100bd4 <gsKit_set_primalpha+0x54>
  100bb4:	0003283e 	dsrl32	a1,v1,0x0
  100bb8:	8cc20008 	lw	v0,8(a2)
  100bbc:	8cc40020 	lw	a0,32(a2)
  100bc0:	24430010 	addiu	v1,v0,16
  100bc4:	acc00024 	sw	zero,36(a2)
  100bc8:	acc30008 	sw	v1,8(a2)
  100bcc:	fc850000 	sd	a1,0(a0)
  100bd0:	acc20020 	sw	v0,32(a2)
  100bd4:	8cc30014 	lw	v1,20(a2)
  100bd8:	2402000b 	li	v0,11
  100bdc:	50620009 	beql	v1,v0,100c04 <gsKit_set_primalpha+0x84>
  100be0:	8cc20008 	lw	v0,8(a2)
  100be4:	50680007 	beql	v1,t0,100c04 <gsKit_set_primalpha+0x84>
  100be8:	8cc20008 	lw	v0,8(a2)
  100bec:	8cc20018 	lw	v0,24(a2)
  100bf0:	8cc3001c 	lw	v1,28(a2)
  100bf4:	dc440000 	ld	a0,0(v0)
  100bf8:	00641825 	or	v1,v1,a0
  100bfc:	fc430000 	sd	v1,0(v0)
  100c00:	8cc20008 	lw	v0,8(a2)
  100c04:	acc0001c 	sw	zero,28(a2)
  100c08:	acc20018 	sw	v0,24(a2)
  100c0c:	8ce20050 	lw	v0,80(a3)
  100c10:	8c450008 	lw	a1,8(v0)
  100c14:	8c43001c 	lw	v1,28(v0)
  100c18:	8c440024 	lw	a0,36(v0)
  100c1c:	24a60030 	addiu	a2,a1,48
  100c20:	24630001 	addiu	v1,v1,1
  100c24:	ac480014 	sw	t0,20(v0)
  100c28:	24840003 	addiu	a0,a0,3
  100c2c:	ac43001c 	sw	v1,28(v0)
  100c30:	ac440024 	sw	a0,36(v0)
  100c34:	3c031000 	lui	v1,0x1000
  100c38:	0003183c 	dsll32	v1,v1,0x0
  100c3c:	34638002 	ori	v1,v1,0x8002
  100c40:	ac460008 	sw	a2,8(v0)
  100c44:	2402000e 	li	v0,14
  100c48:	fca30000 	sd	v1,0(a1)
  100c4c:	fca20008 	sd	v0,8(a1)
  100c50:	24020049 	li	v0,73
  100c54:	8ce3008c 	lw	v1,140(a3)
  100c58:	90e400a8 	lbu	a0,168(a3)
  100c5c:	fca20018 	sd	v0,24(a1)
  100c60:	24630042 	addiu	v1,v1,66
  100c64:	fca40010 	sd	a0,16(a1)
  100c68:	dce200a0 	ld	v0,160(a3)
  100c6c:	fca30028 	sd	v1,40(a1)
  100c70:	03e00008 	jr	ra
  100c74:	fca20020 	sd	v0,32(a1)

00100c78 <gsKit_set_texfilter>:
  100c78:	8c860050 	lw	a2,80(a0)
  100c7c:	30a500ff 	andi	a1,a1,0xff
  100c80:	30a500ff 	andi	a1,a1,0xff
  100c84:	0080382d 	move	a3,a0
  100c88:	8cc40024 	lw	a0,36(a2)
  100c8c:	000511b8 	dsll	v0,a1,0x6
  100c90:	3c031000 	lui	v1,0x1000
  100c94:	00052978 	dsll	a1,a1,0x5
  100c98:	00831825 	or	v1,a0,v1
  100c9c:	00a24825 	or	t1,a1,v0
  100ca0:	24840001 	addiu	a0,a0,1
  100ca4:	3402fffe 	li	v0,0xfffe
  100ca8:	0003183c 	dsll32	v1,v1,0x0
  100cac:	0044102b 	sltu	v0,v0,a0
  100cb0:	0003283e 	dsrl32	a1,v1,0x0
  100cb4:	10400008 	beqz	v0,100cd8 <gsKit_set_texfilter+0x60>
  100cb8:	2408000e 	li	t0,14
  100cbc:	8cc20008 	lw	v0,8(a2)
  100cc0:	8cc30020 	lw	v1,32(a2)
  100cc4:	24440010 	addiu	a0,v0,16
  100cc8:	acc00024 	sw	zero,36(a2)
  100ccc:	fc650000 	sd	a1,0(v1)
  100cd0:	acc40008 	sw	a0,8(a2)
  100cd4:	acc20020 	sw	v0,32(a2)
  100cd8:	8cc30014 	lw	v1,20(a2)
  100cdc:	2402000b 	li	v0,11
  100ce0:	50620009 	beql	v1,v0,100d08 <gsKit_set_texfilter+0x90>
  100ce4:	8ce30050 	lw	v1,80(a3)
  100ce8:	50680007 	beql	v1,t0,100d08 <gsKit_set_texfilter+0x90>
  100cec:	8ce30050 	lw	v1,80(a3)
  100cf0:	8cc20018 	lw	v0,24(a2)
  100cf4:	8cc3001c 	lw	v1,28(a2)
  100cf8:	dc440000 	ld	a0,0(v0)
  100cfc:	00641825 	or	v1,v1,a0
  100d00:	fc430000 	sd	v1,0(v0)
  100d04:	8ce30050 	lw	v1,80(a3)
  100d08:	8cc20008 	lw	v0,8(a2)
  100d0c:	acc0001c 	sw	zero,28(a2)
  100d10:	acc20018 	sw	v0,24(a2)
  100d14:	8c640024 	lw	a0,36(v1)
  100d18:	8c62001c 	lw	v0,28(v1)
  100d1c:	24840002 	addiu	a0,a0,2
  100d20:	ac680014 	sw	t0,20(v1)
  100d24:	24420001 	addiu	v0,v0,1
  100d28:	ac640024 	sw	a0,36(v1)
  100d2c:	ac62001c 	sw	v0,28(v1)
  100d30:	3c021000 	lui	v0,0x1000
  100d34:	0002103c 	dsll32	v0,v0,0x0
  100d38:	34428001 	ori	v0,v0,0x8001
  100d3c:	8c650008 	lw	a1,8(v1)
  100d40:	8ce4008c 	lw	a0,140(a3)
  100d44:	24a60020 	addiu	a2,a1,32
  100d48:	fca20000 	sd	v0,0(a1)
  100d4c:	24840014 	addiu	a0,a0,20
  100d50:	2402000e 	li	v0,14
  100d54:	ac660008 	sw	a2,8(v1)
  100d58:	fca40018 	sd	a0,24(a1)
  100d5c:	fca20008 	sd	v0,8(a1)
  100d60:	03e00008 	jr	ra
  100d64:	fca90010 	sd	t1,16(a1)

00100d68 <gsKit_set_finish>:
  100d68:	8ca60050 	lw	a2,80(a1)
  100d6c:	27bdffc0 	addiu	sp,sp,-64
  100d70:	0080402d 	move	t0,a0
  100d74:	00a0482d 	move	t1,a1
  100d78:	dcc20000 	ld	v0,0(a2)
  100d7c:	3c051000 	lui	a1,0x1000
  100d80:	240a000e 	li	t2,14
  100d84:	ffa20000 	sd	v0,0(sp)
  100d88:	0080102d 	move	v0,a0
  100d8c:	dcc30008 	ld	v1,8(a2)
  100d90:	ffa30008 	sd	v1,8(sp)
  100d94:	dcc40010 	ld	a0,16(a2)
  100d98:	ffa40010 	sd	a0,16(sp)
  100d9c:	dcc30018 	ld	v1,24(a2)
  100da0:	ffa30018 	sd	v1,24(sp)
  100da4:	dcc40020 	ld	a0,32(a2)
  100da8:	ffa40020 	sd	a0,32(sp)
  100dac:	dcc30028 	ld	v1,40(a2)
  100db0:	ffa30028 	sd	v1,40(sp)
  100db4:	dcc40030 	ld	a0,48(a2)
  100db8:	ffa40030 	sd	a0,48(sp)
  100dbc:	dcc30038 	ld	v1,56(a2)
  100dc0:	ffa30038 	sd	v1,56(sp)
  100dc4:	3403fffe 	li	v1,0xfffe
  100dc8:	8cc40024 	lw	a0,36(a2)
  100dcc:	00852825 	or	a1,a0,a1
  100dd0:	24840001 	addiu	a0,a0,1
  100dd4:	0005283c 	dsll32	a1,a1,0x0
  100dd8:	0064182b 	sltu	v1,v1,a0
  100ddc:	10600008 	beqz	v1,100e00 <gsKit_set_finish+0x98>
  100de0:	0005383e 	dsrl32	a3,a1,0x0
  100de4:	8cc30008 	lw	v1,8(a2)
  100de8:	8cc50020 	lw	a1,32(a2)
  100dec:	24640010 	addiu	a0,v1,16
  100df0:	acc00024 	sw	zero,36(a2)
  100df4:	acc40008 	sw	a0,8(a2)
  100df8:	fca70000 	sd	a3,0(a1)
  100dfc:	acc30020 	sw	v1,32(a2)
  100e00:	8cc40014 	lw	a0,20(a2)
  100e04:	2403000b 	li	v1,11
  100e08:	50830009 	beql	a0,v1,100e30 <gsKit_set_finish+0xc8>
  100e0c:	8cc30008 	lw	v1,8(a2)
  100e10:	508a0007 	beql	a0,t2,100e30 <gsKit_set_finish+0xc8>
  100e14:	8cc30008 	lw	v1,8(a2)
  100e18:	8cc30018 	lw	v1,24(a2)
  100e1c:	8cc4001c 	lw	a0,28(a2)
  100e20:	dc650000 	ld	a1,0(v1)
  100e24:	00852025 	or	a0,a0,a1
  100e28:	fc640000 	sd	a0,0(v1)
  100e2c:	8cc30008 	lw	v1,8(a2)
  100e30:	acc0001c 	sw	zero,28(a2)
  100e34:	acc30018 	sw	v1,24(a2)
  100e38:	8d230050 	lw	v1,80(t1)
  100e3c:	8c670008 	lw	a3,8(v1)
  100e40:	8c65001c 	lw	a1,28(v1)
  100e44:	8c660024 	lw	a2,36(v1)
  100e48:	24e40020 	addiu	a0,a3,32
  100e4c:	ac640008 	sw	a0,8(v1)
  100e50:	24a50001 	addiu	a1,a1,1
  100e54:	24c60002 	addiu	a2,a2,2
  100e58:	24040061 	li	a0,97
  100e5c:	fce40018 	sd	a0,24(a3)
  100e60:	3c041000 	lui	a0,0x1000
  100e64:	0004203c 	dsll32	a0,a0,0x0
  100e68:	34848001 	ori	a0,a0,0x8001
  100e6c:	ac65001c 	sw	a1,28(v1)
  100e70:	ac6a0014 	sw	t2,20(v1)
  100e74:	ac660024 	sw	a2,36(v1)
  100e78:	2403000e 	li	v1,14
  100e7c:	fce40000 	sd	a0,0(a3)
  100e80:	fce30008 	sd	v1,8(a3)
  100e84:	fce00010 	sd	zero,16(a3)
  100e88:	dfa30000 	ld	v1,0(sp)
  100e8c:	fd030000 	sd	v1,0(t0)
  100e90:	dfa40008 	ld	a0,8(sp)
  100e94:	fd040008 	sd	a0,8(t0)
  100e98:	dfa30010 	ld	v1,16(sp)
  100e9c:	fd030010 	sd	v1,16(t0)
  100ea0:	dfa40018 	ld	a0,24(sp)
  100ea4:	fd040018 	sd	a0,24(t0)
  100ea8:	dfa30020 	ld	v1,32(sp)
  100eac:	fd030020 	sd	v1,32(t0)
  100eb0:	dfa40028 	ld	a0,40(sp)
  100eb4:	fd040028 	sd	a0,40(t0)
  100eb8:	dfa30030 	ld	v1,48(sp)
  100ebc:	fd030030 	sd	v1,48(t0)
  100ec0:	dfa40038 	ld	a0,56(sp)
  100ec4:	fd040038 	sd	a0,56(t0)
  100ec8:	03e00008 	jr	ra
  100ecc:	27bd0040 	addiu	sp,sp,64

00100ed0 <gsKit_queue_exec_real>:
  100ed0:	27bdff90 	addiu	sp,sp,-112
  100ed4:	ffb10050 	sd	s1,80(sp)
  100ed8:	0080882d 	move	s1,a0
  100edc:	ffb00040 	sd	s0,64(sp)
  100ee0:	00a0802d 	move	s0,a1
  100ee4:	ffbf0060 	sd	ra,96(sp)
  100ee8:	0080282d 	move	a1,a0
  100eec:	8e020024 	lw	v0,36(s0)
  100ef0:	14400007 	bnez	v0,100f10 <gsKit_queue_exec_real+0x40>
  100ef4:	03a0202d 	move	a0,sp
  100ef8:	dfbf0060 	ld	ra,96(sp)
  100efc:	dfb10050 	ld	s1,80(sp)
  100f00:	dfb00040 	ld	s0,64(sp)
  100f04:	03e00008 	jr	ra
  100f08:	27bd0070 	addiu	sp,sp,112
  100f0c:	00000000 	nop
  100f10:	0c04035a 	jal	100d68 <gsKit_set_finish>
  100f14:	00000000 	nop
  100f18:	8e040014 	lw	a0,20(s0)
  100f1c:	8e020024 	lw	v0,36(s0)
  100f20:	3c037000 	lui	v1,0x7000
  100f24:	8e050020 	lw	a1,32(s0)
  100f28:	00431025 	or	v0,v0,v1
  100f2c:	2403000e 	li	v1,14
  100f30:	0002103c 	dsll32	v0,v0,0x0
  100f34:	0002103e 	dsrl32	v0,v0,0x0
  100f38:	10830006 	beq	a0,v1,100f54 <gsKit_queue_exec_real+0x84>
  100f3c:	fca20000 	sd	v0,0(a1)
  100f40:	8e020018 	lw	v0,24(s0)
  100f44:	8e03001c 	lw	v1,28(s0)
  100f48:	dc440000 	ld	a0,0(v0)
  100f4c:	00641825 	or	v1,v1,a0
  100f50:	fc430000 	sd	v1,0(v0)
  100f54:	9222001f 	lbu	v0,31(s1)
  100f58:	10400032 	beqz	v0,101024 <gsKit_queue_exec_real+0x154>
  100f5c:	00000000 	nop
  100f60:	3c031200 	lui	v1,0x1200
  100f64:	24020002 	li	v0,2
  100f68:	34631000 	ori	v1,v1,0x1000
  100f6c:	24040002 	li	a0,2
  100f70:	fc620000 	sd	v0,0(v1)
  100f74:	0c04204a 	jal	108128 <dmaKit_wait>
  100f78:	0000282d 	move	a1,zero
  100f7c:	8e02002c 	lw	v0,44(s0)
  100f80:	24040002 	li	a0,2
  100f84:	00021080 	sll	v0,v0,0x2
  100f88:	00501021 	addu	v0,v0,s0
  100f8c:	0c042138 	jal	1084e0 <dmaKit_send_chain_ucab>
  100f90:	8c450000 	lw	a1,0(v0)
  100f94:	92020028 	lbu	v0,40(s0)
  100f98:	1040000f 	beqz	v0,100fd8 <gsKit_queue_exec_real+0x108>
  100f9c:	24040002 	li	a0,2
  100fa0:	8e04002c 	lw	a0,44(s0)
  100fa4:	2402000b 	li	v0,11
  100fa8:	ae020014 	sw	v0,20(s0)
  100fac:	38840001 	xori	a0,a0,0x1
  100fb0:	ae000024 	sw	zero,36(s0)
  100fb4:	00041080 	sll	v0,a0,0x2
  100fb8:	ae04002c 	sw	a0,44(s0)
  100fbc:	00501021 	addu	v0,v0,s0
  100fc0:	8c430000 	lw	v1,0(v0)
  100fc4:	24640010 	addiu	a0,v1,16
  100fc8:	ae030020 	sw	v1,32(s0)
  100fcc:	ae040018 	sw	a0,24(s0)
  100fd0:	1000ffc9 	b	100ef8 <gsKit_queue_exec_real+0x28>
  100fd4:	ae040008 	sw	a0,8(s0)
  100fd8:	dfa30000 	ld	v1,0(sp)
  100fdc:	dfa50008 	ld	a1,8(sp)
  100fe0:	dfa60010 	ld	a2,16(sp)
  100fe4:	dfa70018 	ld	a3,24(sp)
  100fe8:	dfa80020 	ld	t0,32(sp)
  100fec:	dfa90028 	ld	t1,40(sp)
  100ff0:	dfaa0030 	ld	t2,48(sp)
  100ff4:	dfa20038 	ld	v0,56(sp)
  100ff8:	fe030000 	sd	v1,0(s0)
  100ffc:	fe020038 	sd	v0,56(s0)
  101000:	fe050008 	sd	a1,8(s0)
  101004:	fe060010 	sd	a2,16(s0)
  101008:	fe070018 	sd	a3,24(s0)
  10100c:	fe080020 	sd	t0,32(s0)
  101010:	fe090028 	sd	t1,40(s0)
  101014:	0c042072 	jal	1081c8 <dmaKit_wait_fast>
  101018:	fe0a0030 	sd	t2,48(s0)
  10101c:	1000ffb7 	b	100efc <gsKit_queue_exec_real+0x2c>
  101020:	dfbf0060 	ld	ra,96(sp)
  101024:	0c040184 	jal	100610 <gsKit_finish>
  101028:	00000000 	nop
  10102c:	1000ffcd 	b	100f64 <gsKit_queue_exec_real+0x94>
  101030:	3c031200 	lui	v1,0x1200
  101034:	00000000 	nop

00101038 <gsKit_queue_reset>:
  101038:	90830028 	lbu	v1,40(a0)
  10103c:	24020001 	li	v0,1
  101040:	50620009 	beql	v1,v0,101068 <gsKit_queue_reset+0x30>
  101044:	8c82002c 	lw	v0,44(a0)
  101048:	8c830020 	lw	v1,32(a0)
  10104c:	2402000b 	li	v0,11
  101050:	ac820014 	sw	v0,20(a0)
  101054:	24630010 	addiu	v1,v1,16
  101058:	ac800024 	sw	zero,36(a0)
  10105c:	ac830018 	sw	v1,24(a0)
  101060:	03e00008 	jr	ra
  101064:	ac830008 	sw	v1,8(a0)
  101068:	38420001 	xori	v0,v0,0x1
  10106c:	00021880 	sll	v1,v0,0x2
  101070:	ac82002c 	sw	v0,44(a0)
  101074:	00641821 	addu	v1,v1,a0
  101078:	8c620000 	lw	v0,0(v1)
  10107c:	1000fff2 	b	101048 <gsKit_queue_reset+0x10>
  101080:	ac820020 	sw	v0,32(a0)
  101084:	00000000 	nop

00101088 <gsKit_queue_exec>:
  101088:	27bdffd0 	addiu	sp,sp,-48
  10108c:	ffb00000 	sd	s0,0(sp)
  101090:	0080802d 	move	s0,a0
  101094:	ffbf0020 	sd	ra,32(sp)
  101098:	ffb10010 	sd	s1,16(sp)
  10109c:	9082001e 	lbu	v0,30(a0)
  1010a0:	14400011 	bnez	v0,1010e8 <gsKit_queue_exec+0x60>
  1010a4:	8c910050 	lw	s1,80(a0)
  1010a8:	8c820054 	lw	v0,84(a0)
  1010ac:	ac820050 	sw	v0,80(a0)
  1010b0:	0c0403b4 	jal	100ed0 <gsKit_queue_exec_real>
  1010b4:	0040282d 	move	a1,v0
  1010b8:	8e050058 	lw	a1,88(s0)
  1010bc:	0200202d 	move	a0,s0
  1010c0:	0c0403b4 	jal	100ed0 <gsKit_queue_exec_real>
  1010c4:	ae050050 	sw	a1,80(s0)
  1010c8:	dfbf0020 	ld	ra,32(sp)
  1010cc:	ae110050 	sw	s1,80(s0)
  1010d0:	a200001f 	sb	zero,31(s0)
  1010d4:	dfb10010 	ld	s1,16(sp)
  1010d8:	dfb00000 	ld	s0,0(sp)
  1010dc:	03e00008 	jr	ra
  1010e0:	27bd0030 	addiu	sp,sp,48
  1010e4:	00000000 	nop
  1010e8:	8c820058 	lw	v0,88(a0)
  1010ec:	ac820050 	sw	v0,80(a0)
  1010f0:	0c0403b4 	jal	100ed0 <gsKit_queue_exec_real>
  1010f4:	0040282d 	move	a1,v0
  1010f8:	8e050054 	lw	a1,84(s0)
  1010fc:	1000fff0 	b	1010c0 <gsKit_queue_exec+0x38>
  101100:	0200202d 	move	a0,s0
  101104:	00000000 	nop

00101108 <gsKit_mode_switch>:
  101108:	30a500ff 	andi	a1,a1,0xff
  10110c:	54a00002 	bnezl	a1,101118 <gsKit_mode_switch+0x10>
  101110:	8c820058 	lw	v0,88(a0)
  101114:	8c820054 	lw	v0,84(a0)
  101118:	03e00008 	jr	ra
  10111c:	ac820050 	sw	v0,80(a0)

00101120 <gsKit_detect_signal>:
  101120:	3c041fc7 	lui	a0,0x1fc7
  101124:	24020003 	li	v0,3
  101128:	3484ff52 	ori	a0,a0,0xff52
  10112c:	90830000 	lbu	v1,0(a0)
  101130:	24040002 	li	a0,2
  101134:	00031e00 	sll	v1,v1,0x18
  101138:	00031e03 	sra	v1,v1,0x18
  10113c:	38630045 	xori	v1,v1,0x45
  101140:	03e00008 	jr	ra
  101144:	0083100b 	movn	v0,a0,v1

00101148 <gsKit_init_screen>:
  101148:	27bdffb0 	addiu	sp,sp,-80
  10114c:	ffb20020 	sd	s2,32(sp)
  101150:	0000902d 	move	s2,zero
  101154:	ffb00000 	sd	s0,0(sp)
  101158:	ffbf0040 	sd	ra,64(sp)
  10115c:	ffb30030 	sd	s3,48(sp)
  101160:	ffb10010 	sd	s1,16(sp)
  101164:	90820006 	lbu	v0,6(a0)
  101168:	1440001c 	bnez	v0,1011dc <gsKit_init_screen+0x94>
  10116c:	0080802d 	move	s0,a0
  101170:	84830000 	lh	v1,0(a0)
  101174:	24020004 	li	v0,4
  101178:	1062016d 	beq	v1,v0,101730 <gsKit_init_screen+0x5e8>
  10117c:	ac800008 	sw	zero,8(a0)
  101180:	24020005 	li	v0,5
  101184:	50620168 	beql	v1,v0,101728 <gsKit_init_screen+0x5e0>
  101188:	8c820028 	lw	v0,40(a0)
  10118c:	24020006 	li	v0,6
  101190:	5062015f 	beql	v1,v0,101710 <gsKit_init_screen+0x5c8>
  101194:	8c820028 	lw	v0,40(a0)
  101198:	8c920028 	lw	s2,40(a0)
  10119c:	90910000 	lbu	s1,0(a0)
  1011a0:	3c031200 	lui	v1,0x1200
  1011a4:	24020200 	li	v0,512
  1011a8:	34631000 	ori	v1,v1,0x1000
  1011ac:	ae000008 	sw	zero,8(s0)
  1011b0:	fc620000 	sd	v0,0(v1)
  1011b4:	0000040f 	sync.p
  1011b8:	00000000 	nop
  1011bc:	0c042218 	jal	108860 <GsPutIMR>
  1011c0:	3404f700 	li	a0,0xf700
  1011c4:	86060004 	lh	a2,4(s0)
  1011c8:	86040002 	lh	a0,2(s0)
  1011cc:	0c042210 	jal	108840 <SetGsCrt>
  1011d0:	0220282d 	move	a1,s1
  1011d4:	24020001 	li	v0,1
  1011d8:	a2020006 	sb	v0,6(s0)
  1011dc:	9202000d 	lbu	v0,13(s0)
  1011e0:	54400007 	bnezl	v0,101200 <gsKit_init_screen+0xb8>
  1011e4:	8e020038 	lw	v0,56(s0)
  1011e8:	8e020048 	lw	v0,72(s0)
  1011ec:	24040001 	li	a0,1
  1011f0:	a0440006 	sb	a0,6(v0)
  1011f4:	8e030048 	lw	v1,72(s0)
  1011f8:	a0640007 	sb	a0,7(v1)
  1011fc:	8e020038 	lw	v0,56(s0)
  101200:	3c0b1200 	lui	t3,0x1200
  101204:	8e040024 	lw	a0,36(s0)
  101208:	3c0c1200 	lui	t4,0x1200
  10120c:	8e050034 	lw	a1,52(s0)
  101210:	00021338 	dsll	v0,v0,0xc
  101214:	8e06003c 	lw	a2,60(s0)
  101218:	28890000 	slti	t1,a0,0
  10121c:	8e070040 	lw	a3,64(s0)
  101220:	2483003f 	addiu	v1,a0,63
  101224:	00a22825 	or	a1,a1,v0
  101228:	000635f8 	dsll	a2,a2,0x17
  10122c:	00041080 	sll	v0,a0,0x2
  101230:	8e080028 	lw	t0,40(s0)
  101234:	0089180a 	movz	v1,a0,t1
  101238:	00a62825 	or	a1,a1,a2
  10123c:	00073ef8 	dsll	a3,a3,0x1b
  101240:	2442ffff 	addiu	v0,v0,-1
  101244:	8e060084 	lw	a2,132(s0)
  101248:	00a72825 	or	a1,a1,a3
  10124c:	0002103c 	dsll32	v0,v0,0x0
  101250:	00031983 	sra	v1,v1,0x6
  101254:	2508ffff 	addiu	t0,t0,-1
  101258:	00a22825 	or	a1,a1,v0
  10125c:	0008433c 	dsll32	t0,t0,0xc
  101260:	00031a78 	dsll	v1,v1,0x9
  101264:	000613f8 	dsll	v0,a2,0xf
  101268:	3c071200 	lui	a3,0x1200
  10126c:	3c091200 	lui	t1,0x1200
  101270:	00621825 	or	v1,v1,v0
  101274:	00a82825 	or	a1,a1,t0
  101278:	356b0070 	ori	t3,t3,0x70
  10127c:	358c0090 	ori	t4,t4,0x90
  101280:	352900a0 	ori	t1,t1,0xa0
  101284:	34e70080 	ori	a3,a3,0x80
  101288:	34028046 	li	v0,0x8046
  10128c:	3c011200 	lui	at,0x1200
  101290:	fc220000 	sd	v0,0(at)
  101294:	3c0a1200 	lui	t2,0x1200
  101298:	fd630000 	sd	v1,0(t3)
  10129c:	354a00e0 	ori	t2,t2,0xe0
  1012a0:	fd830000 	sd	v1,0(t4)
  1012a4:	8e080044 	lw	t0,68(s0)
  1012a8:	fce50000 	sd	a1,0(a3)
  1012ac:	fd250000 	sd	a1,0(t1)
  1012b0:	0240282d 	move	a1,s2
  1012b4:	91030001 	lbu	v1,1(t0)
  1012b8:	91070002 	lbu	a3,2(t0)
  1012bc:	91020000 	lbu	v0,0(t0)
  1012c0:	00031a38 	dsll	v1,v1,0x8
  1012c4:	00073c38 	dsll	a3,a3,0x10
  1012c8:	ae000008 	sw	zero,8(s0)
  1012cc:	00431025 	or	v0,v0,v1
  1012d0:	00471025 	or	v0,v0,a3
  1012d4:	0c041006 	jal	104018 <gsKit_texture_size>
  1012d8:	fd420000 	sd	v0,0(t2)
  1012dc:	0000302d 	move	a2,zero
  1012e0:	0200202d 	move	a0,s0
  1012e4:	0c0400f2 	jal	1003c8 <gsKit_vram_alloc>
  1012e8:	0040282d 	move	a1,v0
  1012ec:	0040182d 	move	v1,v0
  1012f0:	9202000c 	lbu	v0,12(s0)
  1012f4:	144000fc 	bnez	v0,1016e8 <gsKit_init_screen+0x5a0>
  1012f8:	ae030010 	sw	v1,16(s0)
  1012fc:	ae030014 	sw	v1,20(s0)
  101300:	9202000d 	lbu	v0,13(s0)
  101304:	24130001 	li	s3,1
  101308:	505300ed 	beql	v0,s3,1016c0 <gsKit_init_screen+0x578>
  10130c:	8e060088 	lw	a2,136(s0)
  101310:	8e040024 	lw	a0,36(s0)
  101314:	24110001 	li	s1,1
  101318:	8e070030 	lw	a3,48(s0)
  10131c:	28820000 	slti	v0,a0,0
  101320:	2483003f 	addiu	v1,a0,63
  101324:	0082180a 	movz	v1,a0,v0
  101328:	8e0c0080 	lw	t4,128(s0)
  10132c:	8e020084 	lw	v0,132(s0)
  101330:	00031983 	sra	v1,v1,0x6
  101334:	8e050028 	lw	a1,40(s0)
  101338:	00034438 	dsll	t0,v1,0x10
  10133c:	00027638 	dsll	t6,v0,0x18
  101340:	9e060010 	lwu	a2,16(s0)
  101344:	0007103c 	dsll32	v0,a3,0x0
  101348:	2484ffff 	addiu	a0,a0,-1
  10134c:	00e24825 	or	t1,a3,v0
  101350:	24a5ffff 	addiu	a1,a1,-1
  101354:	3c021000 	lui	v0,0x1000
  101358:	0002103c 	dsll32	v0,v0,0x0
  10135c:	34428010 	ori	v0,v0,0x8010
  101360:	00042438 	dsll	a0,a0,0x10
  101364:	fd820000 	sd	v0,0(t4)
  101368:	00052c3c 	dsll32	a1,a1,0x10
  10136c:	2402001a 	li	v0,26
  101370:	2403000e 	li	v1,14
  101374:	fd820018 	sd	v0,24(t4)
  101378:	00c83025 	or	a2,a2,t0
  10137c:	2402004c 	li	v0,76
  101380:	fd830008 	sd	v1,8(t4)
  101384:	fd820028 	sd	v0,40(t4)
  101388:	00857825 	or	t7,a0,a1
  10138c:	00ce3025 	or	a2,a2,t6
  101390:	24030018 	li	v1,24
  101394:	24020040 	li	v0,64
  101398:	fd860020 	sd	a2,32(t4)
  10139c:	fd830038 	sd	v1,56(t4)
  1013a0:	fd820048 	sd	v0,72(t4)
  1013a4:	fd910010 	sd	s1,16(t4)
  1013a8:	fd890030 	sd	t1,48(t4)
  1013ac:	fd8f0040 	sd	t7,64(t4)
  1013b0:	8e0b0048 	lw	t3,72(s0)
  1013b4:	8e0d004c 	lw	t5,76(s0)
  1013b8:	91630001 	lbu	v1,1(t3)
  1013bc:	91620000 	lbu	v0,0(t3)
  1013c0:	91640002 	lbu	a0,2(t3)
  1013c4:	00031878 	dsll	v1,v1,0x1
  1013c8:	91650003 	lbu	a1,3(t3)
  1013cc:	00431025 	or	v0,v0,v1
  1013d0:	00042138 	dsll	a0,a0,0x4
  1013d4:	91630004 	lbu	v1,4(t3)
  1013d8:	00441025 	or	v0,v0,a0
  1013dc:	00052b38 	dsll	a1,a1,0xc
  1013e0:	91640005 	lbu	a0,5(t3)
  1013e4:	00451025 	or	v0,v0,a1
  1013e8:	91660006 	lbu	a2,6(t3)
  1013ec:	00031bb8 	dsll	v1,v1,0xe
  1013f0:	91650007 	lbu	a1,7(t3)
  1013f4:	00431025 	or	v0,v0,v1
  1013f8:	000423f8 	dsll	a0,a0,0xf
  1013fc:	00063438 	dsll	a2,a2,0x10
  101400:	00441025 	or	v0,v0,a0
  101404:	00052c78 	dsll	a1,a1,0x11
  101408:	00461025 	or	v0,v0,a2
  10140c:	24030047 	li	v1,71
  101410:	00451025 	or	v0,v0,a1
  101414:	fd830058 	sd	v1,88(t4)
  101418:	fd820050 	sd	v0,80(t4)
  10141c:	8da60004 	lw	a2,4(t5)
  101420:	91a30001 	lbu	v1,1(t5)
  101424:	91a20000 	lbu	v0,0(t5)
  101428:	00063138 	dsll	a2,a2,0x4
  10142c:	8da70008 	lw	a3,8(t5)
  101430:	000318b8 	dsll	v1,v1,0x2
  101434:	8da5000c 	lw	a1,12(t5)
  101438:	00431025 	or	v0,v0,v1
  10143c:	8da40010 	lw	a0,16(t5)
  101440:	00073bb8 	dsll	a3,a3,0xe
  101444:	00461025 	or	v0,v0,a2
  101448:	00052e38 	dsll	a1,a1,0x18
  10144c:	00471025 	or	v0,v0,a3
  101450:	000420bc 	dsll32	a0,a0,0x2
  101454:	00451025 	or	v0,v0,a1
  101458:	24030008 	li	v1,8
  10145c:	00441025 	or	v0,v0,a0
  101460:	fd820060 	sd	v0,96(t4)
  101464:	fd830068 	sd	v1,104(t4)
  101468:	9202000d 	lbu	v0,13(s0)
  10146c:	12620086 	beq	s3,v0,101688 <gsKit_init_screen+0x540>
  101470:	258a0070 	addiu	t2,t4,112
  101474:	304200ff 	andi	v0,v0,0xff
  101478:	1440000a 	bnez	v0,1014a4 <gsKit_init_screen+0x35c>
  10147c:	240200ff 	li	v0,255
  101480:	34028000 	li	v0,0x8000
  101484:	00021478 	dsll	v0,v0,0x11
  101488:	01c21025 	or	v0,t6,v0
  10148c:	fd420000 	sd	v0,0(t2)
  101490:	2402004e 	li	v0,78
  101494:	254a0008 	addiu	t2,t2,8
  101498:	fd420000 	sd	v0,0(t2)
  10149c:	254a0008 	addiu	t2,t2,8
  1014a0:	240200ff 	li	v0,255
  1014a4:	9e030014 	lwu	v1,20(s0)
  1014a8:	fd420000 	sd	v0,0(t2)
  1014ac:	24020046 	li	v0,70
  1014b0:	254a0008 	addiu	t2,t2,8
  1014b4:	00681825 	or	v1,v1,t0
  1014b8:	fd420000 	sd	v0,0(t2)
  1014bc:	006e1825 	or	v1,v1,t6
  1014c0:	254a0008 	addiu	t2,t2,8
  1014c4:	2402004d 	li	v0,77
  1014c8:	0140202d 	move	a0,t2
  1014cc:	8da80008 	lw	t0,8(t5)
  1014d0:	254a0008 	addiu	t2,t2,8
  1014d4:	fc830000 	sd	v1,0(a0)
  1014d8:	fd420000 	sd	v0,0(t2)
  1014dc:	000843b8 	dsll	t0,t0,0xe
  1014e0:	254a0008 	addiu	t2,t2,8
  1014e4:	24020019 	li	v0,25
  1014e8:	fd490000 	sd	t1,0(t2)
  1014ec:	254a0008 	addiu	t2,t2,8
  1014f0:	fd420000 	sd	v0,0(t2)
  1014f4:	24020041 	li	v0,65
  1014f8:	254a0008 	addiu	t2,t2,8
  1014fc:	8da90004 	lw	t1,4(t5)
  101500:	fd4f0000 	sd	t7,0(t2)
  101504:	254a0008 	addiu	t2,t2,8
  101508:	fd420000 	sd	v0,0(t2)
  10150c:	00094938 	dsll	t1,t1,0x4
  101510:	254a0008 	addiu	t2,t2,8
  101514:	8da7000c 	lw	a3,12(t5)
  101518:	91630001 	lbu	v1,1(t3)
  10151c:	91620000 	lbu	v0,0(t3)
  101520:	00073e38 	dsll	a3,a3,0x18
  101524:	91640002 	lbu	a0,2(t3)
  101528:	00031878 	dsll	v1,v1,0x1
  10152c:	91650003 	lbu	a1,3(t3)
  101530:	00431025 	or	v0,v0,v1
  101534:	00042138 	dsll	a0,a0,0x4
  101538:	91630004 	lbu	v1,4(t3)
  10153c:	91660005 	lbu	a2,5(t3)
  101540:	00441025 	or	v0,v0,a0
  101544:	00052b38 	dsll	a1,a1,0xc
  101548:	00031bb8 	dsll	v1,v1,0xe
  10154c:	91640006 	lbu	a0,6(t3)
  101550:	00451025 	or	v0,v0,a1
  101554:	00431025 	or	v0,v0,v1
  101558:	000633f8 	dsll	a2,a2,0xf
  10155c:	91650007 	lbu	a1,7(t3)
  101560:	00461025 	or	v0,v0,a2
  101564:	00042438 	dsll	a0,a0,0x10
  101568:	8da60010 	lw	a2,16(t5)
  10156c:	00052c78 	dsll	a1,a1,0x11
  101570:	00441025 	or	v0,v0,a0
  101574:	00451025 	or	v0,v0,a1
  101578:	000630bc 	dsll32	a2,a2,0x2
  10157c:	fd420000 	sd	v0,0(t2)
  101580:	24020048 	li	v0,72
  101584:	254a0008 	addiu	t2,t2,8
  101588:	fd420000 	sd	v0,0(t2)
  10158c:	254a0008 	addiu	t2,t2,8
  101590:	91a30001 	lbu	v1,1(t5)
  101594:	91a20000 	lbu	v0,0(t5)
  101598:	000318b8 	dsll	v1,v1,0x2
  10159c:	00431025 	or	v0,v0,v1
  1015a0:	00491025 	or	v0,v0,t1
  1015a4:	00481025 	or	v0,v0,t0
  1015a8:	00471025 	or	v0,v0,a3
  1015ac:	00461025 	or	v0,v0,a2
  1015b0:	fd420000 	sd	v0,0(t2)
  1015b4:	24020009 	li	v0,9
  1015b8:	254a0008 	addiu	t2,t2,8
  1015bc:	fd420000 	sd	v0,0(t2)
  1015c0:	9202000d 	lbu	v0,13(s0)
  1015c4:	12620022 	beq	s3,v0,101650 <gsKit_init_screen+0x508>
  1015c8:	254a0008 	addiu	t2,t2,8
  1015cc:	304200ff 	andi	v0,v0,0xff
  1015d0:	5440000a 	bnezl	v0,1015fc <gsKit_init_screen+0x4b4>
  1015d4:	fd510000 	sd	s1,0(t2)
  1015d8:	34028000 	li	v0,0x8000
  1015dc:	00021478 	dsll	v0,v0,0x11
  1015e0:	01c21025 	or	v0,t6,v0
  1015e4:	fd420000 	sd	v0,0(t2)
  1015e8:	2402004f 	li	v0,79
  1015ec:	254a0008 	addiu	t2,t2,8
  1015f0:	fd420000 	sd	v0,0(t2)
  1015f4:	254a0008 	addiu	t2,t2,8
  1015f8:	fd510000 	sd	s1,0(t2)
  1015fc:	24020042 	li	v0,66
  101600:	254a0008 	addiu	t2,t2,8
  101604:	0180282d 	move	a1,t4
  101608:	fd420000 	sd	v0,0(t2)
  10160c:	24060011 	li	a2,17
  101610:	254a0008 	addiu	t2,t2,8
  101614:	24020043 	li	v0,67
  101618:	fd510000 	sd	s1,0(t2)
  10161c:	24040002 	li	a0,2
  101620:	0c0420b8 	jal	1082e0 <dmaKit_send_ucab>
  101624:	fd420008 	sd	v0,8(t2)
  101628:	0c042072 	jal	1081c8 <dmaKit_wait_fast>
  10162c:	24040002 	li	a0,2
  101630:	dfb00000 	ld	s0,0(sp)
  101634:	dfbf0040 	ld	ra,64(sp)
  101638:	dfb30030 	ld	s3,48(sp)
  10163c:	dfb20020 	ld	s2,32(sp)
  101640:	dfb10010 	ld	s1,16(sp)
  101644:	03e00008 	jr	ra
  101648:	27bd0050 	addiu	sp,sp,80
  10164c:	00000000 	nop
  101650:	8e020018 	lw	v0,24(s0)
  101654:	8e030088 	lw	v1,136(s0)
  101658:	00021342 	srl	v0,v0,0xd
  10165c:	0002103c 	dsll32	v0,v0,0x0
  101660:	00031e38 	dsll	v1,v1,0x18
  101664:	0002103e 	dsrl32	v0,v0,0x0
  101668:	00431025 	or	v0,v0,v1
  10166c:	fd420000 	sd	v0,0(t2)
  101670:	2402004f 	li	v0,79
  101674:	254a0008 	addiu	t2,t2,8
  101678:	fd420000 	sd	v0,0(t2)
  10167c:	254a0008 	addiu	t2,t2,8
  101680:	1000ffd2 	b	1015cc <gsKit_init_screen+0x484>
  101684:	9202000d 	lbu	v0,13(s0)
  101688:	8e020018 	lw	v0,24(s0)
  10168c:	2403004e 	li	v1,78
  101690:	8e040088 	lw	a0,136(s0)
  101694:	258a0080 	addiu	t2,t4,128
  101698:	00021342 	srl	v0,v0,0xd
  10169c:	fd830078 	sd	v1,120(t4)
  1016a0:	0002103c 	dsll32	v0,v0,0x0
  1016a4:	00042638 	dsll	a0,a0,0x18
  1016a8:	0002103e 	dsrl32	v0,v0,0x0
  1016ac:	00441025 	or	v0,v0,a0
  1016b0:	fd820070 	sd	v0,112(t4)
  1016b4:	1000ff6f 	b	101474 <gsKit_init_screen+0x32c>
  1016b8:	9202000d 	lbu	v0,13(s0)
  1016bc:	00000000 	nop
  1016c0:	0240282d 	move	a1,s2
  1016c4:	0c041006 	jal	104018 <gsKit_texture_size>
  1016c8:	8e040024 	lw	a0,36(s0)
  1016cc:	0000302d 	move	a2,zero
  1016d0:	0200202d 	move	a0,s0
  1016d4:	0c0400f2 	jal	1003c8 <gsKit_vram_alloc>
  1016d8:	0040282d 	move	a1,v0
  1016dc:	1000ff0c 	b	101310 <gsKit_init_screen+0x1c8>
  1016e0:	ae020018 	sw	v0,24(s0)
  1016e4:	00000000 	nop
  1016e8:	8e060084 	lw	a2,132(s0)
  1016ec:	0240282d 	move	a1,s2
  1016f0:	0c041006 	jal	104018 <gsKit_texture_size>
  1016f4:	8e040024 	lw	a0,36(s0)
  1016f8:	0000302d 	move	a2,zero
  1016fc:	0200202d 	move	a0,s0
  101700:	0c0400f2 	jal	1003c8 <gsKit_vram_alloc>
  101704:	0040282d 	move	a1,v0
  101708:	1000fefd 	b	101300 <gsKit_init_screen+0x1b8>
  10170c:	ae020014 	sw	v0,20(s0)
  101710:	24110051 	li	s1,81
  101714:	00021fc2 	srl	v1,v0,0x1f
  101718:	00431021 	addu	v0,v0,v1
  10171c:	1000fea0 	b	1011a0 <gsKit_init_screen+0x58>
  101720:	00029043 	sra	s2,v0,0x1
  101724:	00000000 	nop
  101728:	1000fffa 	b	101714 <gsKit_init_screen+0x5cc>
  10172c:	24110003 	li	s1,3
  101730:	8c820028 	lw	v0,40(a0)
  101734:	1000fff7 	b	101714 <gsKit_init_screen+0x5cc>
  101738:	24110002 	li	s1,2
  10173c:	00000000 	nop

00101740 <gsKit_init_global_custom>:
  101740:	27bdff60 	addiu	sp,sp,-160
  101744:	0080102d 	move	v0,a0
  101748:	ffb20020 	sd	s2,32(sp)
  10174c:	24040001 	li	a0,1
  101750:	00a0902d 	move	s2,a1
  101754:	ffbf0090 	sd	ra,144(sp)
  101758:	240500c0 	li	a1,192
  10175c:	ffbe0080 	sd	s8,128(sp)
  101760:	ffb70070 	sd	s7,112(sp)
  101764:	305e00ff 	andi	s8,v0,0xff
  101768:	ffb60060 	sd	s6,96(sp)
  10176c:	2416000b 	li	s6,11
  101770:	ffb50050 	sd	s5,80(sp)
  101774:	3c153000 	lui	s5,0x3000
  101778:	ffb40040 	sd	s4,64(sp)
  10177c:	00c0a02d 	move	s4,a2
  101780:	ffb30030 	sd	s3,48(sp)
  101784:	24130001 	li	s3,1
  101788:	ffb10010 	sd	s1,16(sp)
  10178c:	0c0429b0 	jal	10a6c0 <calloc>
  101790:	ffb00000 	sd	s0,0(sp)
  101794:	24040001 	li	a0,1
  101798:	24050003 	li	a1,3
  10179c:	0c0429b0 	jal	10a6c0 <calloc>
  1017a0:	0040b82d 	move	s7,v0
  1017a4:	24040001 	li	a0,1
  1017a8:	24050008 	li	a1,8
  1017ac:	0c0429b0 	jal	10a6c0 <calloc>
  1017b0:	aee20044 	sw	v0,68(s7)
  1017b4:	24050014 	li	a1,20
  1017b8:	24040001 	li	a0,1
  1017bc:	0c0429b0 	jal	10a6c0 <calloc>
  1017c0:	aee20048 	sw	v0,72(s7)
  1017c4:	24050040 	li	a1,64
  1017c8:	24040001 	li	a0,1
  1017cc:	0c0429b0 	jal	10a6c0 <calloc>
  1017d0:	aee2004c 	sw	v0,76(s7)
  1017d4:	24050040 	li	a1,64
  1017d8:	24040001 	li	a0,1
  1017dc:	0c0429b0 	jal	10a6c0 <calloc>
  1017e0:	aee20058 	sw	v0,88(s7)
  1017e4:	24050200 	li	a1,512
  1017e8:	24040040 	li	a0,64
  1017ec:	0c0429c4 	jal	10a710 <memalign>
  1017f0:	aee20054 	sw	v0,84(s7)
  1017f4:	00551025 	or	v0,v0,s5
  1017f8:	0240282d 	move	a1,s2
  1017fc:	24040040 	li	a0,64
  101800:	8ef00058 	lw	s0,88(s7)
  101804:	aee20080 	sw	v0,128(s7)
  101808:	a2e00006 	sb	zero,6(s7)
  10180c:	aee0002c 	sw	zero,44(s7)
  101810:	aef30084 	sw	s3,132(s7)
  101814:	aee00088 	sw	zero,136(s7)
  101818:	a2e0001c 	sb	zero,28(s7)
  10181c:	a2e0001e 	sb	zero,30(s7)
  101820:	a2f3001d 	sb	s3,29(s7)
  101824:	0c0429c4 	jal	10a710 <memalign>
  101828:	aef2005c 	sw	s2,92(s7)
  10182c:	00551025 	or	v0,v0,s5
  101830:	24040040 	li	a0,64
  101834:	ae020020 	sw	v0,32(s0)
  101838:	0240282d 	move	a1,s2
  10183c:	ae020000 	sw	v0,0(s0)
  101840:	0c0429c4 	jal	10a710 <memalign>
  101844:	8ef10058 	lw	s1,88(s7)
  101848:	24040040 	li	a0,64
  10184c:	00551025 	or	v0,v0,s5
  101850:	8ee30058 	lw	v1,88(s7)
  101854:	ae220004 	sw	v0,4(s1)
  101858:	0280282d 	move	a1,s4
  10185c:	a0730028 	sb	s3,40(v1)
  101860:	8c660000 	lw	a2,0(v1)
  101864:	8c620004 	lw	v0,4(v1)
  101868:	00d23821 	addu	a3,a2,s2
  10186c:	ac60002c 	sw	zero,44(v1)
  101870:	24c60010 	addiu	a2,a2,16
  101874:	00521021 	addu	v0,v0,s2
  101878:	ac600024 	sw	zero,36(v1)
  10187c:	ac760014 	sw	s6,20(v1)
  101880:	ac67000c 	sw	a3,12(v1)
  101884:	ac620010 	sw	v0,16(v1)
  101888:	ac660018 	sw	a2,24(v1)
  10188c:	ac660008 	sw	a2,8(v1)
  101890:	8ef00054 	lw	s0,84(s7)
  101894:	0c0429c4 	jal	10a710 <memalign>
  101898:	aef40060 	sw	s4,96(s7)
  10189c:	00551025 	or	v0,v0,s5
  1018a0:	8ee30054 	lw	v1,84(s7)
  1018a4:	ae020000 	sw	v0,0(s0)
  1018a8:	a0600028 	sb	zero,40(v1)
  1018ac:	8c640000 	lw	a0,0(v1)
  1018b0:	8ee50058 	lw	a1,88(s7)
  1018b4:	0094a021 	addu	s4,a0,s4
  1018b8:	ae020020 	sw	v0,32(s0)
  1018bc:	24840010 	addiu	a0,a0,16
  1018c0:	24020007 	li	v0,7
  1018c4:	ac74000c 	sw	s4,12(v1)
  1018c8:	ac640018 	sw	a0,24(v1)
  1018cc:	ac760014 	sw	s6,20(v1)
  1018d0:	aee50050 	sw	a1,80(s7)
  1018d4:	ac640008 	sw	a0,8(v1)
  1018d8:	ac60002c 	sw	zero,44(v1)
  1018dc:	13c20154 	beq	s8,v0,101e30 <gsKit_init_global_custom+0x6f0>
  1018e0:	ac600024 	sw	zero,36(v1)
  1018e4:	24020008 	li	v0,8
  1018e8:	13c2014b 	beq	s8,v0,101e18 <gsKit_init_global_custom+0x6d8>
  1018ec:	00000000 	nop
  1018f0:	24020002 	li	v0,2
  1018f4:	13c20138 	beq	s8,v0,101dd8 <gsKit_init_global_custom+0x698>
  1018f8:	24020004 	li	v0,4
  1018fc:	13c20128 	beq	s8,v0,101da0 <gsKit_init_global_custom+0x660>
  101900:	24050003 	li	a1,3
  101904:	13c50116 	beq	s8,a1,101d60 <gsKit_init_global_custom+0x620>
  101908:	24020005 	li	v0,5
  10190c:	13c20102 	beq	s8,v0,101d18 <gsKit_init_global_custom+0x5d8>
  101910:	27c2ffe6 	addiu	v0,s8,-26
  101914:	2c420004 	sltiu	v0,v0,4
  101918:	10400055 	beqz	v0,101a70 <gsKit_init_global_custom+0x330>
  10191c:	27c2ffd6 	addiu	v0,s8,-42
  101920:	24020280 	li	v0,640
  101924:	24040001 	li	a0,1
  101928:	aee20024 	sw	v0,36(s7)
  10192c:	240301e0 	li	v1,480
  101930:	2402001a 	li	v0,26
  101934:	a2e4000d 	sb	a0,13(s7)
  101938:	aee30028 	sw	v1,40(s7)
  10193c:	a6e00002 	sh	zero,2(s7)
  101940:	a6e00004 	sh	zero,4(s7)
  101944:	a2e4000c 	sb	a0,12(s7)
  101948:	13c20047 	beq	s8,v0,101a68 <gsKit_init_global_custom+0x328>
  10194c:	a6fe0000 	sh	s8,0(s7)
  101950:	2402001b 	li	v0,27
  101954:	13c20005 	beq	s8,v0,10196c <gsKit_init_global_custom+0x22c>
  101958:	2402014a 	li	v0,330
  10195c:	2402001c 	li	v0,28
  101960:	13c20002 	beq	s8,v0,10196c <gsKit_init_global_custom+0x22c>
  101964:	24020168 	li	v0,360
  101968:	24020104 	li	v0,260
  10196c:	aee20034 	sw	v0,52(s7)
  101970:	24020012 	li	v0,18
  101974:	24030001 	li	v1,1
  101978:	aee20038 	sw	v0,56(s7)
  10197c:	aee3003c 	sw	v1,60(s7)
  101980:	aee00040 	sw	zero,64(s7)
  101984:	8ee40044 	lw	a0,68(s7)
  101988:	24060001 	li	a2,1
  10198c:	34028000 	li	v0,0x8000
  101990:	24030001 	li	v1,1
  101994:	aee20030 	sw	v0,48(s7)
  101998:	02e0102d 	move	v0,s7
  10199c:	fee300a0 	sd	v1,160(s7)
  1019a0:	aee60020 	sw	a2,32(s7)
  1019a4:	a2e6001f 	sb	a2,31(s7)
  1019a8:	aee00090 	sw	zero,144(s7)
  1019ac:	aee00094 	sw	zero,148(s7)
  1019b0:	aee00098 	sw	zero,152(s7)
  1019b4:	aee0008c 	sw	zero,140(s7)
  1019b8:	a0800000 	sb	zero,0(a0)
  1019bc:	8ee30044 	lw	v1,68(s7)
  1019c0:	a0600001 	sb	zero,1(v1)
  1019c4:	8ee40044 	lw	a0,68(s7)
  1019c8:	a0800002 	sb	zero,2(a0)
  1019cc:	8ee30048 	lw	v1,72(s7)
  1019d0:	a0600000 	sb	zero,0(v1)
  1019d4:	2403ff80 	li	v1,-128
  1019d8:	8ee40048 	lw	a0,72(s7)
  1019dc:	a0860001 	sb	a2,1(a0)
  1019e0:	8ee50048 	lw	a1,72(s7)
  1019e4:	a0a30002 	sb	v1,2(a1)
  1019e8:	8ee40048 	lw	a0,72(s7)
  1019ec:	a0800003 	sb	zero,3(a0)
  1019f0:	8ee30048 	lw	v1,72(s7)
  1019f4:	a0600004 	sb	zero,4(v1)
  1019f8:	8ee40048 	lw	a0,72(s7)
  1019fc:	a0800005 	sb	zero,5(a0)
  101a00:	8ee30048 	lw	v1,72(s7)
  101a04:	a0660006 	sb	a2,6(v1)
  101a08:	24030002 	li	v1,2
  101a0c:	8ee50048 	lw	a1,72(s7)
  101a10:	a0a30007 	sb	v1,7(a1)
  101a14:	8ee4004c 	lw	a0,76(s7)
  101a18:	a0860000 	sb	a2,0(a0)
  101a1c:	8ee5004c 	lw	a1,76(s7)
  101a20:	a0a60001 	sb	a2,1(a1)
  101a24:	8ee3004c 	lw	v1,76(s7)
  101a28:	dfbf0090 	ld	ra,144(sp)
  101a2c:	dfbe0080 	ld	s8,128(sp)
  101a30:	dfb70070 	ld	s7,112(sp)
  101a34:	dfb60060 	ld	s6,96(sp)
  101a38:	dfb50050 	ld	s5,80(sp)
  101a3c:	dfb40040 	ld	s4,64(sp)
  101a40:	dfb30030 	ld	s3,48(sp)
  101a44:	dfb20020 	ld	s2,32(sp)
  101a48:	dfb10010 	ld	s1,16(sp)
  101a4c:	dfb00000 	ld	s0,0(sp)
  101a50:	ac600010 	sw	zero,16(v1)
  101a54:	ac600004 	sw	zero,4(v1)
  101a58:	ac600008 	sw	zero,8(v1)
  101a5c:	ac60000c 	sw	zero,12(v1)
  101a60:	03e00008 	jr	ra
  101a64:	27bd00a0 	addiu	sp,sp,160
  101a68:	1000ffc0 	b	10196c <gsKit_init_global_custom+0x22c>
  101a6c:	24020118 	li	v0,280
  101a70:	2c420005 	sltiu	v0,v0,5
  101a74:	1040001c 	beqz	v0,101ae8 <gsKit_init_global_custom+0x3a8>
  101a78:	27c2ffc5 	addiu	v0,s8,-59
  101a7c:	24020320 	li	v0,800
  101a80:	24040001 	li	a0,1
  101a84:	aee20024 	sw	v0,36(s7)
  101a88:	24030258 	li	v1,600
  101a8c:	2402002a 	li	v0,42
  101a90:	a2e4000d 	sb	a0,13(s7)
  101a94:	aee30028 	sw	v1,40(s7)
  101a98:	a6e00002 	sh	zero,2(s7)
  101a9c:	a6e00004 	sh	zero,4(s7)
  101aa0:	a2e4000c 	sb	a0,12(s7)
  101aa4:	13c2000e 	beq	s8,v0,101ae0 <gsKit_init_global_custom+0x3a0>
  101aa8:	a6fe0000 	sh	s8,0(s7)
  101aac:	2402002b 	li	v0,43
  101ab0:	13c20008 	beq	s8,v0,101ad4 <gsKit_init_global_custom+0x394>
  101ab4:	240201d1 	li	v0,465
  101ab8:	2402002c 	li	v0,44
  101abc:	13c20005 	beq	s8,v0,101ad4 <gsKit_init_global_custom+0x394>
  101ac0:	240201d1 	li	v0,465
  101ac4:	2402002d 	li	v0,45
  101ac8:	53c20002 	beql	s8,v0,101ad4 <gsKit_init_global_custom+0x394>
  101acc:	240201fe 	li	v0,510
  101ad0:	240201f4 	li	v0,500
  101ad4:	aee20034 	sw	v0,52(s7)
  101ad8:	1000ffa6 	b	101974 <gsKit_init_global_custom+0x234>
  101adc:	24020019 	li	v0,25
  101ae0:	1000fffc 	b	101ad4 <gsKit_init_global_custom+0x394>
  101ae4:	240201c2 	li	v0,450
  101ae8:	2c420004 	sltiu	v0,v0,4
  101aec:	10400022 	beqz	v0,101b78 <gsKit_init_global_custom+0x438>
  101af0:	27c2ffb6 	addiu	v0,s8,-74
  101af4:	24020400 	li	v0,1024
  101af8:	24030300 	li	v1,768
  101afc:	aee20024 	sw	v0,36(s7)
  101b00:	2402001e 	li	v0,30
  101b04:	aee20038 	sw	v0,56(s7)
  101b08:	2402003b 	li	v0,59
  101b0c:	aee30028 	sw	v1,40(s7)
  101b10:	a6e00002 	sh	zero,2(s7)
  101b14:	a6e00004 	sh	zero,4(s7)
  101b18:	a2e0000c 	sb	zero,12(s7)
  101b1c:	a2e0000d 	sb	zero,13(s7)
  101b20:	a6fe0000 	sh	s8,0(s7)
  101b24:	13c2000f 	beq	s8,v0,101b64 <gsKit_init_global_custom+0x424>
  101b28:	aee00040 	sw	zero,64(s7)
  101b2c:	2402003c 	li	v0,60
  101b30:	13c2000a 	beq	s8,v0,101b5c <gsKit_init_global_custom+0x41c>
  101b34:	2402010a 	li	v0,266
  101b38:	2402003d 	li	v0,61
  101b3c:	13c20005 	beq	s8,v0,101b54 <gsKit_init_global_custom+0x414>
  101b40:	24020104 	li	v0,260
  101b44:	aee0003c 	sw	zero,60(s7)
  101b48:	24020122 	li	v0,290
  101b4c:	1000ff8d 	b	101984 <gsKit_init_global_custom+0x244>
  101b50:	aee20034 	sw	v0,52(s7)
  101b54:	1000fffd 	b	101b4c <gsKit_init_global_custom+0x40c>
  101b58:	aee0003c 	sw	zero,60(s7)
  101b5c:	1000fffb 	b	101b4c <gsKit_init_global_custom+0x40c>
  101b60:	aee0003c 	sw	zero,60(s7)
  101b64:	24020001 	li	v0,1
  101b68:	24030244 	li	v1,580
  101b6c:	aee2003c 	sw	v0,60(s7)
  101b70:	1000ff84 	b	101984 <gsKit_init_global_custom+0x244>
  101b74:	aee30034 	sw	v1,52(s7)
  101b78:	2c420002 	sltiu	v0,v0,2
  101b7c:	10400010 	beqz	v0,101bc0 <gsKit_init_global_custom+0x480>
  101b80:	24020050 	li	v0,80
  101b84:	24020500 	li	v0,1280
  101b88:	24030400 	li	v1,1024
  101b8c:	aee20024 	sw	v0,36(s7)
  101b90:	2402015e 	li	v0,350
  101b94:	a6fe0000 	sh	s8,0(s7)
  101b98:	aee30028 	sw	v1,40(s7)
  101b9c:	24030028 	li	v1,40
  101ba0:	aee20034 	sw	v0,52(s7)
  101ba4:	aee30038 	sw	v1,56(s7)
  101ba8:	a6e00002 	sh	zero,2(s7)
  101bac:	a6e00004 	sh	zero,4(s7)
  101bb0:	a2e0000c 	sb	zero,12(s7)
  101bb4:	a2e0000d 	sb	zero,13(s7)
  101bb8:	1000ff71 	b	101980 <gsKit_init_global_custom+0x240>
  101bbc:	aee0003c 	sw	zero,60(s7)
  101bc0:	13c20042 	beq	s8,v0,101ccc <gsKit_init_global_custom+0x58c>
  101bc4:	24020052 	li	v0,82
  101bc8:	13c2003a 	beq	s8,v0,101cb4 <gsKit_init_global_custom+0x574>
  101bcc:	240302d0 	li	v1,720
  101bd0:	24020051 	li	v0,81
  101bd4:	13c20029 	beq	s8,v0,101c7c <gsKit_init_global_custom+0x53c>
  101bd8:	24020006 	li	v0,6
  101bdc:	13c20013 	beq	s8,v0,101c2c <gsKit_init_global_custom+0x4ec>
  101be0:	3c040016 	lui	a0,0x16
  101be4:	0c042988 	jal	10a620 <printf>
  101be8:	24841f60 	addiu	a0,a0,8032
  101bec:	a6e00004 	sh	zero,4(s7)
  101bf0:	24030002 	li	v1,2
  101bf4:	24020280 	li	v0,640
  101bf8:	a6e30000 	sh	v1,0(s7)
  101bfc:	240301c0 	li	v1,448
  101c00:	aee20024 	sw	v0,36(s7)
  101c04:	24020278 	li	v0,632
  101c08:	aee30028 	sw	v1,40(s7)
  101c0c:	24030032 	li	v1,50
  101c10:	aee20034 	sw	v0,52(s7)
  101c14:	24020003 	li	v0,3
  101c18:	aee30038 	sw	v1,56(s7)
  101c1c:	24030001 	li	v1,1
  101c20:	aee2003c 	sw	v0,60(s7)
  101c24:	1000ff56 	b	101980 <gsKit_init_global_custom+0x240>
  101c28:	a2e3001c 	sb	v1,28(s7)
  101c2c:	24020002 	li	v0,2
  101c30:	24030438 	li	v1,1080
  101c34:	aee20084 	sw	v0,132(s7)
  101c38:	24040001 	li	a0,1
  101c3c:	24020780 	li	v0,1920
  101c40:	aee30028 	sw	v1,40(s7)
  101c44:	aee20024 	sw	v0,36(s7)
  101c48:	2403003c 	li	v1,60
  101c4c:	2402012c 	li	v0,300
  101c50:	a6e40004 	sh	a0,4(s7)
  101c54:	aee20034 	sw	v0,52(s7)
  101c58:	24020001 	li	v0,1
  101c5c:	a6fe0000 	sh	s8,0(s7)
  101c60:	aee30038 	sw	v1,56(s7)
  101c64:	aee20040 	sw	v0,64(s7)
  101c68:	a6e40002 	sh	a0,2(s7)
  101c6c:	a2e0000c 	sb	zero,12(s7)
  101c70:	a2e0000d 	sb	zero,13(s7)
  101c74:	1000ff43 	b	101984 <gsKit_init_global_custom+0x244>
  101c78:	aee0003c 	sw	zero,60(s7)
  101c7c:	24020001 	li	v0,1
  101c80:	24030002 	li	v1,2
  101c84:	a6e20002 	sh	v0,2(s7)
  101c88:	24020780 	li	v0,1920
  101c8c:	aee30084 	sw	v1,132(s7)
  101c90:	24030438 	li	v1,1080
  101c94:	aee20024 	sw	v0,36(s7)
  101c98:	2402012c 	li	v0,300
  101c9c:	aee30028 	sw	v1,40(s7)
  101ca0:	24030078 	li	v1,120
  101ca4:	a6fe0000 	sh	s8,0(s7)
  101ca8:	aee20034 	sw	v0,52(s7)
  101cac:	1000ffbf 	b	101bac <gsKit_init_global_custom+0x46c>
  101cb0:	aee30038 	sw	v1,56(s7)
  101cb4:	24020500 	li	v0,1280
  101cb8:	a6fe0000 	sh	s8,0(s7)
  101cbc:	aee30028 	sw	v1,40(s7)
  101cc0:	aee20024 	sw	v0,36(s7)
  101cc4:	1000ffb5 	b	101b9c <gsKit_init_global_custom+0x45c>
  101cc8:	240201a4 	li	v0,420
  101ccc:	240202d0 	li	v0,720
  101cd0:	240301e0 	li	v1,480
  101cd4:	aee20024 	sw	v0,36(s7)
  101cd8:	24040001 	li	a0,1
  101cdc:	240200e8 	li	v0,232
  101ce0:	aee30028 	sw	v1,40(s7)
  101ce4:	aee20034 	sw	v0,52(s7)
  101ce8:	24030023 	li	v1,35
  101cec:	24020001 	li	v0,1
  101cf0:	a2e4000d 	sb	a0,13(s7)
  101cf4:	a6fe0000 	sh	s8,0(s7)
  101cf8:	aee30038 	sw	v1,56(s7)
  101cfc:	aee2003c 	sw	v0,60(s7)
  101d00:	a6e00002 	sh	zero,2(s7)
  101d04:	00000000 	nop
  101d08:	a6e00004 	sh	zero,4(s7)
  101d0c:	1000ff1c 	b	101980 <gsKit_init_global_custom+0x240>
  101d10:	a2e4000c 	sb	a0,12(s7)
  101d14:	00000000 	nop
  101d18:	24020280 	li	v0,640
  101d1c:	24030200 	li	v1,512
  101d20:	aee20024 	sw	v0,36(s7)
  101d24:	24040001 	li	a0,1
  101d28:	aee30028 	sw	v1,40(s7)
  101d2c:	240202a8 	li	v0,680
  101d30:	24030032 	li	v1,50
  101d34:	a6fe0000 	sh	s8,0(s7)
  101d38:	aee20034 	sw	v0,52(s7)
  101d3c:	aee30038 	sw	v1,56(s7)
  101d40:	aee5003c 	sw	a1,60(s7)
  101d44:	a2e4001c 	sb	a0,28(s7)
  101d48:	a6e40002 	sh	a0,2(s7)
  101d4c:	a6e40004 	sh	a0,4(s7)
  101d50:	a2e4000c 	sb	a0,12(s7)
  101d54:	1000ff0a 	b	101980 <gsKit_init_global_custom+0x240>
  101d58:	a2e4000d 	sb	a0,13(s7)
  101d5c:	00000000 	nop
  101d60:	24020280 	li	v0,640
  101d64:	24030200 	li	v1,512
  101d68:	24040001 	li	a0,1
  101d6c:	aee20024 	sw	v0,36(s7)
  101d70:	aee30028 	sw	v1,40(s7)
  101d74:	240202a8 	li	v0,680
  101d78:	24030032 	li	v1,50
  101d7c:	a2e4000d 	sb	a0,13(s7)
  101d80:	aee20034 	sw	v0,52(s7)
  101d84:	aee30038 	sw	v1,56(s7)
  101d88:	aefe003c 	sw	s8,60(s7)
  101d8c:	a6e40002 	sh	a0,2(s7)
  101d90:	a6e00004 	sh	zero,4(s7)
  101d94:	a2e4000c 	sb	a0,12(s7)
  101d98:	1000fef9 	b	101980 <gsKit_init_global_custom+0x240>
  101d9c:	a6fe0000 	sh	s8,0(s7)
  101da0:	24020280 	li	v0,640
  101da4:	240301c0 	li	v1,448
  101da8:	aee20024 	sw	v0,36(s7)
  101dac:	24040001 	li	a0,1
  101db0:	2402028c 	li	v0,652
  101db4:	aee30028 	sw	v1,40(s7)
  101db8:	aee20034 	sw	v0,52(s7)
  101dbc:	2403001e 	li	v1,30
  101dc0:	24020003 	li	v0,3
  101dc4:	a6fe0000 	sh	s8,0(s7)
  101dc8:	aee30038 	sw	v1,56(s7)
  101dcc:	1000ffdd 	b	101d44 <gsKit_init_global_custom+0x604>
  101dd0:	aee2003c 	sw	v0,60(s7)
  101dd4:	00000000 	nop
  101dd8:	24020280 	li	v0,640
  101ddc:	240301c0 	li	v1,448
  101de0:	aee20024 	sw	v0,36(s7)
  101de4:	24040001 	li	a0,1
  101de8:	24020278 	li	v0,632
  101dec:	aee30028 	sw	v1,40(s7)
  101df0:	aee20034 	sw	v0,52(s7)
  101df4:	24030028 	li	v1,40
  101df8:	24020003 	li	v0,3
  101dfc:	a2e4000d 	sb	a0,13(s7)
  101e00:	a6fe0000 	sh	s8,0(s7)
  101e04:	aee30038 	sw	v1,56(s7)
  101e08:	aee2003c 	sw	v0,60(s7)
  101e0c:	1000ffbe 	b	101d08 <gsKit_init_global_custom+0x5c8>
  101e10:	a6e40002 	sh	a0,2(s7)
  101e14:	00000000 	nop
  101e18:	0c040448 	jal	101120 <gsKit_detect_signal>
  101e1c:	241e0004 	li	s8,4
  101e20:	38420002 	xori	v0,v0,0x2
  101e24:	24030005 	li	v1,5
  101e28:	1000feb1 	b	1018f0 <gsKit_init_global_custom+0x1b0>
  101e2c:	0062f00b 	movn	s8,v1,v0
  101e30:	0c040448 	jal	101120 <gsKit_detect_signal>
  101e34:	00000000 	nop
  101e38:	1000fead 	b	1018f0 <gsKit_init_global_custom+0x1b0>
  101e3c:	305e00ff 	andi	s8,v0,0xff

00101e40 <gsKit_init_font>:
  101e40:	27bdffc0 	addiu	sp,sp,-64
  101e44:	0080102d 	move	v0,a0
  101e48:	ffb10010 	sd	s1,16(sp)
  101e4c:	24040001 	li	a0,1
  101e50:	00a0882d 	move	s1,a1
  101e54:	ffbf0030 	sd	ra,48(sp)
  101e58:	24050064 	li	a1,100
  101e5c:	ffb20020 	sd	s2,32(sp)
  101e60:	ffb00000 	sd	s0,0(sp)
  101e64:	0c0429b0 	jal	10a6c0 <calloc>
  101e68:	305200ff 	andi	s2,v0,0xff
  101e6c:	24040001 	li	a0,1
  101e70:	24050028 	li	a1,40
  101e74:	0c0429b0 	jal	10a6c0 <calloc>
  101e78:	0040802d 	move	s0,v0
  101e7c:	0220202d 	move	a0,s1
  101e80:	1220000a 	beqz	s1,101eac <gsKit_init_font+0x6c>
  101e84:	ae020018 	sw	v0,24(s0)
  101e88:	0c04221c 	jal	108870 <strlen>
  101e8c:	00000000 	nop
  101e90:	24040001 	li	a0,1
  101e94:	0c0429b0 	jal	10a6c0 <calloc>
  101e98:	0040282d 	move	a1,v0
  101e9c:	0220282d 	move	a1,s1
  101ea0:	0040202d 	move	a0,v0
  101ea4:	0c0428cc 	jal	10a330 <strcpy>
  101ea8:	ae020000 	sw	v0,0(s0)
  101eac:	a212000c 	sb	s2,12(s0)
  101eb0:	0200102d 	move	v0,s0
  101eb4:	dfbf0030 	ld	ra,48(sp)
  101eb8:	dfb20020 	ld	s2,32(sp)
  101ebc:	dfb10010 	ld	s1,16(sp)
  101ec0:	dfb00000 	ld	s0,0(sp)
  101ec4:	03e00008 	jr	ra
  101ec8:	27bd0040 	addiu	sp,sp,64
  101ecc:	00000000 	nop

00101ed0 <gsKit_init_font_raw>:
  101ed0:	27bdffb0 	addiu	sp,sp,-80
  101ed4:	ffb30030 	sd	s3,48(sp)
  101ed8:	00a0982d 	move	s3,a1
  101edc:	ffb10010 	sd	s1,16(sp)
  101ee0:	24050064 	li	a1,100
  101ee4:	0080882d 	move	s1,a0
  101ee8:	ffbf0040 	sd	ra,64(sp)
  101eec:	24040001 	li	a0,1
  101ef0:	ffb20020 	sd	s2,32(sp)
  101ef4:	ffb00000 	sd	s0,0(sp)
  101ef8:	0c0429b0 	jal	10a6c0 <calloc>
  101efc:	00c0902d 	move	s2,a2
  101f00:	323100ff 	andi	s1,s1,0xff
  101f04:	24050028 	li	a1,40
  101f08:	24040001 	li	a0,1
  101f0c:	0c0429b0 	jal	10a6c0 <calloc>
  101f10:	0040802d 	move	s0,v0
  101f14:	0040182d 	move	v1,v0
  101f18:	ae130010 	sw	s3,16(s0)
  101f1c:	0200102d 	move	v0,s0
  101f20:	ae120014 	sw	s2,20(s0)
  101f24:	a211000c 	sb	s1,12(s0)
  101f28:	ae030018 	sw	v1,24(s0)
  101f2c:	dfbf0040 	ld	ra,64(sp)
  101f30:	dfb30030 	ld	s3,48(sp)
  101f34:	dfb20020 	ld	s2,32(sp)
  101f38:	dfb10010 	ld	s1,16(sp)
  101f3c:	dfb00000 	ld	s0,0(sp)
  101f40:	03e00008 	jr	ra
  101f44:	27bd0050 	addiu	sp,sp,80

00101f48 <gsKit_prim_point>:
  101f48:	84830004 	lh	v1,4(a0)
  101f4c:	24020001 	li	v0,1
  101f50:	0080502d 	move	t2,a0
  101f54:	46006886 	mov.s	$f2,$f13
  101f58:	00a0782d 	move	t7,a1
  101f5c:	10620064 	beq	v1,v0,1020f0 <gsKit_prim_point+0x1a8>
  101f60:	00c0c02d 	move	t8,a2
  101f64:	3c014180 	lui	at,0x4180
  101f68:	44810000 	mtc1	at,$f0
  101f6c:	240c0002 	li	t4,2
  101f70:	8d480050 	lw	t0,80(t2)
  101f74:	24090020 	li	t1,32
  101f78:	46001082 	mul.s	$f2,$f2,$f0
  101f7c:	8d460030 	lw	a2,48(t2)
  101f80:	46006002 	mul.s	$f0,$f12,$f0
  101f84:	8d070024 	lw	a3,36(t0)
  101f88:	240e1000 	li	t6,4096
  101f8c:	46001124 	cvt.w.s	$f4,$f2
  101f90:	44052000 	mfc1	a1,$f4
  101f94:	24e30002 	addiu	v1,a3,2
  101f98:	460000a4 	cvt.w.s	$f2,$f0
  101f9c:	44041000 	mfc1	a0,$f2
  101fa0:	3402fffe 	li	v0,0xfffe
  101fa4:	0043102b 	sltu	v0,v0,v1
  101fa8:	00a65821 	addu	t3,a1,a2
  101fac:	1040000c 	beqz	v0,101fe0 <gsKit_prim_point+0x98>
  101fb0:	00866821 	addu	t5,a0,a2
  101fb4:	3c021000 	lui	v0,0x1000
  101fb8:	8d050008 	lw	a1,8(t0)
  101fbc:	00e21025 	or	v0,a3,v0
  101fc0:	8d040020 	lw	a0,32(t0)
  101fc4:	0002103c 	dsll32	v0,v0,0x0
  101fc8:	24a30010 	addiu	v1,a1,16
  101fcc:	0002103e 	dsrl32	v0,v0,0x0
  101fd0:	ad030008 	sw	v1,8(t0)
  101fd4:	fc820000 	sd	v0,0(a0)
  101fd8:	ad000024 	sw	zero,36(t0)
  101fdc:	ad050020 	sw	a1,32(t0)
  101fe0:	8d030014 	lw	v1,20(t0)
  101fe4:	106e003c 	beq	v1,t6,1020d8 <gsKit_prim_point+0x190>
  101fe8:	2402000b 	li	v0,11
  101fec:	10620008 	beq	v1,v0,102010 <gsKit_prim_point+0xc8>
  101ff0:	2402000e 	li	v0,14
  101ff4:	50620007 	beql	v1,v0,102014 <gsKit_prim_point+0xcc>
  101ff8:	8d020008 	lw	v0,8(t0)
  101ffc:	8d020018 	lw	v0,24(t0)
  102000:	8d03001c 	lw	v1,28(t0)
  102004:	dc440000 	ld	a0,0(v0)
  102008:	00641825 	or	v1,v1,a0
  10200c:	fc430000 	sd	v1,0(v0)
  102010:	8d020008 	lw	v0,8(t0)
  102014:	240c0003 	li	t4,3
  102018:	ad00001c 	sw	zero,28(t0)
  10201c:	24090030 	li	t1,48
  102020:	ad020018 	sw	v0,24(t0)
  102024:	8d450050 	lw	a1,80(t2)
  102028:	8d040008 	lw	a0,8(t0)
  10202c:	8d02001c 	lw	v0,28(t0)
  102030:	8d030024 	lw	v1,36(t0)
  102034:	00893021 	addu	a2,a0,t1
  102038:	8ca70018 	lw	a3,24(a1)
  10203c:	24420001 	addiu	v0,v0,1
  102040:	006c1821 	addu	v1,v1,t4
  102044:	0080482d 	move	t1,a0
  102048:	ad060008 	sw	a2,8(t0)
  10204c:	ad02001c 	sw	v0,28(t0)
  102050:	ad0e0014 	sw	t6,20(t0)
  102054:	10870016 	beq	a0,a3,1020b0 <gsKit_prim_point+0x168>
  102058:	ad030024 	sw	v1,36(t0)
  10205c:	8d420090 	lw	v0,144(t2)
  102060:	0160202d 	move	a0,t3
  102064:	8d450098 	lw	a1,152(t2)
  102068:	00042438 	dsll	a0,a0,0x10
  10206c:	8d460094 	lw	a2,148(t2)
  102070:	00021178 	dsll	v0,v0,0x5
  102074:	000529b8 	dsll	a1,a1,0x6
  102078:	8d43008c 	lw	v1,140(t2)
  10207c:	00451025 	or	v0,v0,a1
  102080:	000631f8 	dsll	a2,a2,0x7
  102084:	00031a78 	dsll	v1,v1,0x9
  102088:	00461025 	or	v0,v0,a2
  10208c:	00431025 	or	v0,v0,v1
  102090:	01a42025 	or	a0,t5,a0
  102094:	000f183c 	dsll32	v1,t7,0x0
  102098:	fd220000 	sd	v0,0(t1)
  10209c:	00832025 	or	a0,a0,v1
  1020a0:	25290008 	addiu	t1,t1,8
  1020a4:	fd240008 	sd	a0,8(t1)
  1020a8:	03e00008 	jr	ra
  1020ac:	fd380000 	sd	t8,0(t1)
  1020b0:	3c024400 	lui	v0,0x4400
  1020b4:	0002103c 	dsll32	v0,v0,0x0
  1020b8:	34428000 	ori	v0,v0,0x8000
  1020bc:	24890008 	addiu	t1,a0,8
  1020c0:	fc820000 	sd	v0,0(a0)
  1020c4:	3402f510 	li	v0,0xf510
  1020c8:	fd220000 	sd	v0,0(t1)
  1020cc:	1000ffe3 	b	10205c <gsKit_prim_point+0x114>
  1020d0:	25290008 	addiu	t1,t1,8
  1020d4:	00000000 	nop
  1020d8:	8d02001c 	lw	v0,28(t0)
  1020dc:	28427fff 	slti	v0,v0,32767
  1020e0:	5440ffd1 	bnezl	v0,102028 <gsKit_prim_point+0xe0>
  1020e4:	8d450050 	lw	a1,80(t2)
  1020e8:	1000ffc0 	b	101fec <gsKit_prim_point+0xa4>
  1020ec:	2402000b 	li	v0,11
  1020f0:	3c013f00 	lui	at,0x3f00
  1020f4:	44810000 	mtc1	at,$f0
  1020f8:	1000ff9a 	b	101f64 <gsKit_prim_point+0x1c>
  1020fc:	46006882 	mul.s	$f2,$f13,$f0

00102100 <gsKit_prim_line_3d>:
  102100:	27bdffd0 	addiu	sp,sp,-48
  102104:	24020001 	li	v0,1
  102108:	ffb20020 	sd	s2,32(sp)
  10210c:	0080502d 	move	t2,a0
  102110:	ffb10010 	sd	s1,16(sp)
  102114:	46006906 	mov.s	$f4,$f13
  102118:	ffb00000 	sd	s0,0(sp)
  10211c:	00a0882d 	move	s1,a1
  102120:	46007986 	mov.s	$f6,$f15
  102124:	00c0802d 	move	s0,a2
  102128:	84830004 	lh	v1,4(a0)
  10212c:	1062007a 	beq	v1,v0,102318 <gsKit_prim_line_3d+0x218>
  102130:	00e0902d 	move	s2,a3
  102134:	3c014180 	lui	at,0x4180
  102138:	44810000 	mtc1	at,$f0
  10213c:	240f0002 	li	t7,2
  102140:	8d490050 	lw	t1,80(t2)
  102144:	240b0020 	li	t3,32
  102148:	46006082 	mul.s	$f2,$f12,$f0
  10214c:	8d440030 	lw	a0,48(t2)
  102150:	46003182 	mul.s	$f6,$f6,$f0
  102154:	8d280024 	lw	t0,36(t1)
  102158:	46002102 	mul.s	$f4,$f4,$f0
  10215c:	240e1100 	li	t6,4352
  102160:	46007002 	mul.s	$f0,$f14,$f0
  102164:	25030002 	addiu	v1,t0,2
  102168:	46001224 	cvt.w.s	$f8,$f2
  10216c:	44074000 	mfc1	a3,$f8
  102170:	3402fffe 	li	v0,0xfffe
  102174:	0043102b 	sltu	v0,v0,v1
  102178:	460020a4 	cvt.w.s	$f2,$f4
  10217c:	44061000 	mfc1	a2,$f2
  102180:	460000a4 	cvt.w.s	$f2,$f0
  102184:	44031000 	mfc1	v1,$f2
  102188:	46003024 	cvt.w.s	$f0,$f6
  10218c:	44050000 	mfc1	a1,$f0
  102190:	00e4c821 	addu	t9,a3,a0
  102194:	00c46021 	addu	t4,a2,a0
  102198:	0064c021 	addu	t8,v1,a0
  10219c:	1040000c 	beqz	v0,1021d0 <gsKit_prim_line_3d+0xd0>
  1021a0:	00a46821 	addu	t5,a1,a0
  1021a4:	3c021000 	lui	v0,0x1000
  1021a8:	8d250008 	lw	a1,8(t1)
  1021ac:	01021025 	or	v0,t0,v0
  1021b0:	8d240020 	lw	a0,32(t1)
  1021b4:	0002103c 	dsll32	v0,v0,0x0
  1021b8:	24a30010 	addiu	v1,a1,16
  1021bc:	0002103e 	dsrl32	v0,v0,0x0
  1021c0:	ad230008 	sw	v1,8(t1)
  1021c4:	fc820000 	sd	v0,0(a0)
  1021c8:	ad200024 	sw	zero,36(t1)
  1021cc:	ad250020 	sw	a1,32(t1)
  1021d0:	8d230014 	lw	v1,20(t1)
  1021d4:	106e004a 	beq	v1,t6,102300 <gsKit_prim_line_3d+0x200>
  1021d8:	2402000b 	li	v0,11
  1021dc:	10620008 	beq	v1,v0,102200 <gsKit_prim_line_3d+0x100>
  1021e0:	2402000e 	li	v0,14
  1021e4:	50620007 	beql	v1,v0,102204 <gsKit_prim_line_3d+0x104>
  1021e8:	8d220008 	lw	v0,8(t1)
  1021ec:	8d220018 	lw	v0,24(t1)
  1021f0:	8d23001c 	lw	v1,28(t1)
  1021f4:	dc440000 	ld	a0,0(v0)
  1021f8:	00641825 	or	v1,v1,a0
  1021fc:	fc430000 	sd	v1,0(v0)
  102200:	8d220008 	lw	v0,8(t1)
  102204:	240f0003 	li	t7,3
  102208:	ad20001c 	sw	zero,28(t1)
  10220c:	240b0030 	li	t3,48
  102210:	ad220018 	sw	v0,24(t1)
  102214:	8d450050 	lw	a1,80(t2)
  102218:	8d240008 	lw	a0,8(t1)
  10221c:	8d22001c 	lw	v0,28(t1)
  102220:	8d230024 	lw	v1,36(t1)
  102224:	008b3021 	addu	a2,a0,t3
  102228:	8ca70018 	lw	a3,24(a1)
  10222c:	24420001 	addiu	v0,v0,1
  102230:	006f1821 	addu	v1,v1,t7
  102234:	0080402d 	move	t0,a0
  102238:	ad260008 	sw	a2,8(t1)
  10223c:	ad22001c 	sw	v0,28(t1)
  102240:	ad2e0014 	sw	t6,20(t1)
  102244:	10870024 	beq	a0,a3,1022d8 <gsKit_prim_line_3d+0x1d8>
  102248:	ad230024 	sw	v1,36(t1)
  10224c:	8d420090 	lw	v0,144(t2)
  102250:	0180382d 	move	a3,t4
  102254:	8d430098 	lw	v1,152(t2)
  102258:	01a0302d 	move	a2,t5
  10225c:	8d450094 	lw	a1,148(t2)
  102260:	00021178 	dsll	v0,v0,0x5
  102264:	000319b8 	dsll	v1,v1,0x6
  102268:	8d44008c 	lw	a0,140(t2)
  10226c:	00431025 	or	v0,v0,v1
  102270:	000529f8 	dsll	a1,a1,0x7
  102274:	00451025 	or	v0,v0,a1
  102278:	00042278 	dsll	a0,a0,0x9
  10227c:	00441025 	or	v0,v0,a0
  102280:	24030001 	li	v1,1
  102284:	00431025 	or	v0,v0,v1
  102288:	00073c38 	dsll	a3,a3,0x10
  10228c:	fd020000 	sd	v0,0(t0)
  102290:	00063438 	dsll	a2,a2,0x10
  102294:	25080008 	addiu	t0,t0,8
  102298:	0011103c 	dsll32	v0,s1,0x0
  10229c:	fd120000 	sd	s2,0(t0)
  1022a0:	0010183c 	dsll32	v1,s0,0x0
  1022a4:	03273825 	or	a3,t9,a3
  1022a8:	03063025 	or	a2,t8,a2
  1022ac:	dfb20020 	ld	s2,32(sp)
  1022b0:	25080008 	addiu	t0,t0,8
  1022b4:	dfb10010 	ld	s1,16(sp)
  1022b8:	00e23825 	or	a3,a3,v0
  1022bc:	dfb00000 	ld	s0,0(sp)
  1022c0:	00c33025 	or	a2,a2,v1
  1022c4:	fd060008 	sd	a2,8(t0)
  1022c8:	fd070000 	sd	a3,0(t0)
  1022cc:	03e00008 	jr	ra
  1022d0:	27bd0030 	addiu	sp,sp,48
  1022d4:	00000000 	nop
  1022d8:	3c024400 	lui	v0,0x4400
  1022dc:	0002103c 	dsll32	v0,v0,0x0
  1022e0:	34428000 	ori	v0,v0,0x8000
  1022e4:	24880008 	addiu	t0,a0,8
  1022e8:	fc820000 	sd	v0,0(a0)
  1022ec:	24025510 	li	v0,21776
  1022f0:	fd020000 	sd	v0,0(t0)
  1022f4:	1000ffd5 	b	10224c <gsKit_prim_line_3d+0x14c>
  1022f8:	25080008 	addiu	t0,t0,8
  1022fc:	00000000 	nop
  102300:	8d22001c 	lw	v0,28(t1)
  102304:	28427fff 	slti	v0,v0,32767
  102308:	5440ffc3 	bnezl	v0,102218 <gsKit_prim_line_3d+0x118>
  10230c:	8d450050 	lw	a1,80(t2)
  102310:	1000ffb2 	b	1021dc <gsKit_prim_line_3d+0xdc>
  102314:	2402000b 	li	v0,11
  102318:	3c013f00 	lui	at,0x3f00
  10231c:	44810000 	mtc1	at,$f0
  102320:	00000000 	nop
  102324:	46007982 	mul.s	$f6,$f15,$f0
  102328:	1000ff82 	b	102134 <gsKit_prim_line_3d+0x34>
  10232c:	46006902 	mul.s	$f4,$f13,$f0

00102330 <gsKit_prim_line_strip>:
  102330:	000610c0 	sll	v0,a2,0x3
  102334:	27bdffc0 	addiu	sp,sp,-64
  102338:	2442000f 	addiu	v0,v0,15
  10233c:	ffbe0030 	sd	s8,48(sp)
  102340:	00021102 	srl	v0,v0,0x4
  102344:	ffb00020 	sd	s0,32(sp)
  102348:	00021100 	sll	v0,v0,0x4
  10234c:	03a0f02d 	move	s8,sp
  102350:	03a0802d 	move	s0,sp
  102354:	00066840 	sll	t5,a2,0x1
  102358:	03a2e823 	subu	sp,sp,v0
  10235c:	0100782d 	move	t7,t0
  102360:	0080582d 	move	t3,a0
  102364:	00e0c82d 	move	t9,a3
  102368:	24c80002 	addiu	t0,a2,2
  10236c:	03a0c02d 	move	t8,sp
  102370:	19a00020 	blez	t5,1023f4 <gsKit_prim_line_strip+0xc4>
  102374:	0000502d 	move	t2,zero
  102378:	3c014180 	lui	at,0x4180
  10237c:	44811000 	mtc1	at,$f2
  102380:	24090001 	li	t1,1
  102384:	3c013f00 	lui	at,0x3f00
  102388:	44812000 	mtc1	at,$f4
  10238c:	84870004 	lh	a3,4(a0)
  102390:	03a0202d 	move	a0,sp
  102394:	00000000 	nop
  102398:	c4a00000 	lwc1	$f0,0(a1)
  10239c:	254a0002 	addiu	t2,t2,2
  1023a0:	8d630030 	lw	v1,48(t3)
  1023a4:	014d302a 	slt	a2,t2,t5
  1023a8:	46020002 	mul.s	$f0,$f0,$f2
  1023ac:	24a50004 	addiu	a1,a1,4
  1023b0:	460001a4 	cvt.w.s	$f6,$f0
  1023b4:	44023000 	mfc1	v0,$f6
  1023b8:	00000000 	nop
  1023bc:	00431021 	addu	v0,v0,v1
  1023c0:	10e90073 	beq	a3,t1,102590 <gsKit_prim_line_strip+0x260>
  1023c4:	ac820000 	sw	v0,0(a0)
  1023c8:	c4a00000 	lwc1	$f0,0(a1)
  1023cc:	24a50004 	addiu	a1,a1,4
  1023d0:	8d630030 	lw	v1,48(t3)
  1023d4:	46020002 	mul.s	$f0,$f0,$f2
  1023d8:	460001a4 	cvt.w.s	$f6,$f0
  1023dc:	44023000 	mfc1	v0,$f6
  1023e0:	00000000 	nop
  1023e4:	00431021 	addu	v0,v0,v1
  1023e8:	ac820004 	sw	v0,4(a0)
  1023ec:	14c0ffea 	bnez	a2,102398 <gsKit_prim_line_strip+0x68>
  1023f0:	24840008 	addiu	a0,a0,8
  1023f4:	8d6c0050 	lw	t4,80(t3)
  1023f8:	3402fffe 	li	v0,0xfffe
  1023fc:	00087100 	sll	t6,t0,0x4
  102400:	8d840024 	lw	a0,36(t4)
  102404:	00881821 	addu	v1,a0,t0
  102408:	0043102b 	sltu	v0,v0,v1
  10240c:	1040000c 	beqz	v0,102440 <gsKit_prim_line_strip+0x110>
  102410:	2409000e 	li	t1,14
  102414:	3c021000 	lui	v0,0x1000
  102418:	8d850008 	lw	a1,8(t4)
  10241c:	00821025 	or	v0,a0,v0
  102420:	ad800024 	sw	zero,36(t4)
  102424:	8d840020 	lw	a0,32(t4)
  102428:	0002103c 	dsll32	v0,v0,0x0
  10242c:	24a30010 	addiu	v1,a1,16
  102430:	0002103e 	dsrl32	v0,v0,0x0
  102434:	ad830008 	sw	v1,8(t4)
  102438:	fc820000 	sd	v0,0(a0)
  10243c:	ad850020 	sw	a1,32(t4)
  102440:	8d830014 	lw	v1,20(t4)
  102444:	2402000b 	li	v0,11
  102448:	50620009 	beql	v1,v0,102470 <gsKit_prim_line_strip+0x140>
  10244c:	8d660050 	lw	a2,80(t3)
  102450:	50690007 	beql	v1,t1,102470 <gsKit_prim_line_strip+0x140>
  102454:	8d660050 	lw	a2,80(t3)
  102458:	8d820018 	lw	v0,24(t4)
  10245c:	8d83001c 	lw	v1,28(t4)
  102460:	dc440000 	ld	a0,0(v0)
  102464:	00641825 	or	v1,v1,a0
  102468:	fc430000 	sd	v1,0(v0)
  10246c:	8d660050 	lw	a2,80(t3)
  102470:	25050001 	addiu	a1,t0,1
  102474:	ad80001c 	sw	zero,28(t4)
  102478:	35048000 	ori	a0,t0,0x8000
  10247c:	8cc20024 	lw	v0,36(a2)
  102480:	34078000 	li	a3,0x8000
  102484:	00073b7c 	dsll32	a3,a3,0xd
  102488:	8cc3001c 	lw	v1,28(a2)
  10248c:	00873825 	or	a3,a0,a3
  102490:	00451021 	addu	v0,v0,a1
  102494:	acc90014 	sw	t1,20(a2)
  102498:	24630001 	addiu	v1,v1,1
  10249c:	acc20024 	sw	v0,36(a2)
  1024a0:	acc3001c 	sw	v1,28(a2)
  1024a4:	25ce0010 	addiu	t6,t6,16
  1024a8:	8cc80008 	lw	t0,8(a2)
  1024ac:	0000502d 	move	t2,zero
  1024b0:	8d640090 	lw	a0,144(t3)
  1024b4:	8d620098 	lw	v0,152(t3)
  1024b8:	25090008 	addiu	t1,t0,8
  1024bc:	8d630094 	lw	v1,148(t3)
  1024c0:	00042178 	dsll	a0,a0,0x5
  1024c4:	000211b8 	dsll	v0,v0,0x6
  1024c8:	8d65008c 	lw	a1,140(t3)
  1024cc:	00822025 	or	a0,a0,v0
  1024d0:	000319f8 	dsll	v1,v1,0x7
  1024d4:	00832025 	or	a0,a0,v1
  1024d8:	00052a78 	dsll	a1,a1,0x9
  1024dc:	24020002 	li	v0,2
  1024e0:	2403000e 	li	v1,14
  1024e4:	00852025 	or	a0,a0,a1
  1024e8:	fd070000 	sd	a3,0(t0)
  1024ec:	00822025 	or	a0,a0,v0
  1024f0:	fd230000 	sd	v1,0(t1)
  1024f4:	25290008 	addiu	t1,t1,8
  1024f8:	8d830008 	lw	v1,8(t4)
  1024fc:	fd240000 	sd	a0,0(t1)
  102500:	010e4021 	addu	t0,t0,t6
  102504:	25290008 	addiu	t1,t1,8
  102508:	24020001 	li	v0,1
  10250c:	fd200000 	sd	zero,0(t1)
  102510:	25290008 	addiu	t1,t1,8
  102514:	fd2f0000 	sd	t7,0(t1)
  102518:	25290008 	addiu	t1,t1,8
  10251c:	fd220000 	sd	v0,0(t1)
  102520:	25290008 	addiu	t1,t1,8
  102524:	acc80008 	sw	t0,8(a2)
  102528:	19a00012 	blez	t5,102574 <gsKit_prim_line_strip+0x244>
  10252c:	ad830018 	sw	v1,24(t4)
  102530:	0019383c 	dsll32	a3,t9,0x0
  102534:	0300282d 	move	a1,t8
  102538:	24060005 	li	a2,5
  10253c:	00000000 	nop
  102540:	8ca20004 	lw	v0,4(a1)
  102544:	254a0002 	addiu	t2,t2,2
  102548:	8ca30000 	lw	v1,0(a1)
  10254c:	014d202a 	slt	a0,t2,t5
  102550:	00021438 	dsll	v0,v0,0x10
  102554:	24a50008 	addiu	a1,a1,8
  102558:	00621825 	or	v1,v1,v0
  10255c:	00671825 	or	v1,v1,a3
  102560:	fd230000 	sd	v1,0(t1)
  102564:	25290008 	addiu	t1,t1,8
  102568:	fd260000 	sd	a2,0(t1)
  10256c:	1480fff4 	bnez	a0,102540 <gsKit_prim_line_strip+0x210>
  102570:	25290008 	addiu	t1,t1,8
  102574:	0200e82d 	move	sp,s0
  102578:	03c0e82d 	move	sp,s8
  10257c:	dfbe0030 	ld	s8,48(sp)
  102580:	dfb00020 	ld	s0,32(sp)
  102584:	03e00008 	jr	ra
  102588:	27bd0040 	addiu	sp,sp,64
  10258c:	00000000 	nop
  102590:	c4a00000 	lwc1	$f0,0(a1)
  102594:	46040002 	mul.s	$f0,$f0,$f4
  102598:	1000ff8b 	b	1023c8 <gsKit_prim_line_strip+0x98>
  10259c:	e4a00000 	swc1	$f0,0(a1)

001025a0 <gsKit_prim_line_strip_3d>:
  1025a0:	2402000c 	li	v0,12
  1025a4:	27bdffc0 	addiu	sp,sp,-64
  1025a8:	00c21018 	mult	v0,a2,v0
  1025ac:	00067840 	sll	t7,a2,0x1
  1025b0:	ffbe0030 	sd	s8,48(sp)
  1025b4:	01e61821 	addu	v1,t7,a2
  1025b8:	ffb00020 	sd	s0,32(sp)
  1025bc:	03a0f02d 	move	s8,sp
  1025c0:	03a0802d 	move	s0,sp
  1025c4:	00c0702d 	move	t6,a2
  1025c8:	2442000f 	addiu	v0,v0,15
  1025cc:	0080502d 	move	t2,a0
  1025d0:	00021102 	srl	v0,v0,0x4
  1025d4:	00e0c02d 	move	t8,a3
  1025d8:	00021100 	sll	v0,v0,0x4
  1025dc:	24cc0002 	addiu	t4,a2,2
  1025e0:	03a2e823 	subu	sp,sp,v0
  1025e4:	0000402d 	move	t0,zero
  1025e8:	18600024 	blez	v1,10267c <gsKit_prim_line_strip_3d+0xdc>
  1025ec:	03a0c82d 	move	t9,sp
  1025f0:	3c014180 	lui	at,0x4180
  1025f4:	44811000 	mtc1	at,$f2
  1025f8:	0060482d 	move	t1,v1
  1025fc:	3c013f00 	lui	at,0x3f00
  102600:	44812000 	mtc1	at,$f4
  102604:	240b0001 	li	t3,1
  102608:	84870004 	lh	a3,4(a0)
  10260c:	03a0202d 	move	a0,sp
  102610:	c4a00000 	lwc1	$f0,0(a1)
  102614:	25080003 	addiu	t0,t0,3
  102618:	8d430030 	lw	v1,48(t2)
  10261c:	0109302a 	slt	a2,t0,t1
  102620:	46020002 	mul.s	$f0,$f0,$f2
  102624:	24a50004 	addiu	a1,a1,4
  102628:	460001a4 	cvt.w.s	$f6,$f0
  10262c:	44023000 	mfc1	v0,$f6
  102630:	00000000 	nop
  102634:	00431021 	addu	v0,v0,v1
  102638:	10eb0079 	beq	a3,t3,102820 <gsKit_prim_line_strip_3d+0x280>
  10263c:	ac820000 	sw	v0,0(a0)
  102640:	c4a00000 	lwc1	$f0,0(a1)
  102644:	24a50004 	addiu	a1,a1,4
  102648:	8d430030 	lw	v1,48(t2)
  10264c:	46020002 	mul.s	$f0,$f0,$f2
  102650:	460001a4 	cvt.w.s	$f6,$f0
  102654:	44023000 	mfc1	v0,$f6
  102658:	c4a00000 	lwc1	$f0,0(a1)
  10265c:	24a50004 	addiu	a1,a1,4
  102660:	46020002 	mul.s	$f0,$f0,$f2
  102664:	00431021 	addu	v0,v0,v1
  102668:	ac820004 	sw	v0,4(a0)
  10266c:	460001a4 	cvt.w.s	$f6,$f0
  102670:	e4860008 	swc1	$f6,8(a0)
  102674:	14c0ffe6 	bnez	a2,102610 <gsKit_prim_line_strip_3d+0x70>
  102678:	2484000c 	addiu	a0,a0,12
  10267c:	8d4b0050 	lw	t3,80(t2)
  102680:	3402fffe 	li	v0,0xfffe
  102684:	000c6900 	sll	t5,t4,0x4
  102688:	8d640024 	lw	a0,36(t3)
  10268c:	008c1821 	addu	v1,a0,t4
  102690:	0043102b 	sltu	v0,v0,v1
  102694:	1040000c 	beqz	v0,1026c8 <gsKit_prim_line_strip_3d+0x128>
  102698:	2407000e 	li	a3,14
  10269c:	3c021000 	lui	v0,0x1000
  1026a0:	8d650008 	lw	a1,8(t3)
  1026a4:	00821025 	or	v0,a0,v0
  1026a8:	ad600024 	sw	zero,36(t3)
  1026ac:	8d640020 	lw	a0,32(t3)
  1026b0:	0002103c 	dsll32	v0,v0,0x0
  1026b4:	24a30010 	addiu	v1,a1,16
  1026b8:	0002103e 	dsrl32	v0,v0,0x0
  1026bc:	ad630008 	sw	v1,8(t3)
  1026c0:	fc820000 	sd	v0,0(a0)
  1026c4:	ad650020 	sw	a1,32(t3)
  1026c8:	8d630014 	lw	v1,20(t3)
  1026cc:	2402000b 	li	v0,11
  1026d0:	50620009 	beql	v1,v0,1026f8 <gsKit_prim_line_strip_3d+0x158>
  1026d4:	8d460050 	lw	a2,80(t2)
  1026d8:	50670007 	beql	v1,a3,1026f8 <gsKit_prim_line_strip_3d+0x158>
  1026dc:	8d460050 	lw	a2,80(t2)
  1026e0:	8d620018 	lw	v0,24(t3)
  1026e4:	8d63001c 	lw	v1,28(t3)
  1026e8:	dc440000 	ld	a0,0(v0)
  1026ec:	00641825 	or	v1,v1,a0
  1026f0:	fc430000 	sd	v1,0(v0)
  1026f4:	8d460050 	lw	a2,80(t2)
  1026f8:	25850001 	addiu	a1,t4,1
  1026fc:	ad60001c 	sw	zero,28(t3)
  102700:	35848000 	ori	a0,t4,0x8000
  102704:	8cc20024 	lw	v0,36(a2)
  102708:	34088000 	li	t0,0x8000
  10270c:	0008437c 	dsll32	t0,t0,0xd
  102710:	8cc3001c 	lw	v1,28(a2)
  102714:	00884025 	or	t0,a0,t0
  102718:	00451021 	addu	v0,v0,a1
  10271c:	acc70014 	sw	a3,20(a2)
  102720:	24630001 	addiu	v1,v1,1
  102724:	acc20024 	sw	v0,36(a2)
  102728:	acc3001c 	sw	v1,28(a2)
  10272c:	25ad0010 	addiu	t5,t5,16
  102730:	8cc70008 	lw	a3,8(a2)
  102734:	01ee6021 	addu	t4,t7,t6
  102738:	8d440090 	lw	a0,144(t2)
  10273c:	8d420098 	lw	v0,152(t2)
  102740:	24e90008 	addiu	t1,a3,8
  102744:	8d430094 	lw	v1,148(t2)
  102748:	00042178 	dsll	a0,a0,0x5
  10274c:	000211b8 	dsll	v0,v0,0x6
  102750:	8d45008c 	lw	a1,140(t2)
  102754:	00822025 	or	a0,a0,v0
  102758:	000319f8 	dsll	v1,v1,0x7
  10275c:	00832025 	or	a0,a0,v1
  102760:	00052a78 	dsll	a1,a1,0x9
  102764:	24020002 	li	v0,2
  102768:	2403000e 	li	v1,14
  10276c:	00852025 	or	a0,a0,a1
  102770:	fce80000 	sd	t0,0(a3)
  102774:	00822025 	or	a0,a0,v0
  102778:	fd230000 	sd	v1,0(t1)
  10277c:	25290008 	addiu	t1,t1,8
  102780:	8d630008 	lw	v1,8(t3)
  102784:	fd240000 	sd	a0,0(t1)
  102788:	00ed3821 	addu	a3,a3,t5
  10278c:	25290008 	addiu	t1,t1,8
  102790:	24020001 	li	v0,1
  102794:	fd200000 	sd	zero,0(t1)
  102798:	0000402d 	move	t0,zero
  10279c:	25290008 	addiu	t1,t1,8
  1027a0:	acc70008 	sw	a3,8(a2)
  1027a4:	fd380000 	sd	t8,0(t1)
  1027a8:	25290008 	addiu	t1,t1,8
  1027ac:	fd220000 	sd	v0,0(t1)
  1027b0:	25290008 	addiu	t1,t1,8
  1027b4:	19800013 	blez	t4,102804 <gsKit_prim_line_strip_3d+0x264>
  1027b8:	ad630018 	sw	v1,24(t3)
  1027bc:	0320302d 	move	a2,t9
  1027c0:	24070005 	li	a3,5
  1027c4:	00000000 	nop
  1027c8:	8cc40004 	lw	a0,4(a2)
  1027cc:	25080003 	addiu	t0,t0,3
  1027d0:	8cc30000 	lw	v1,0(a2)
  1027d4:	010c282a 	slt	a1,t0,t4
  1027d8:	8cc20008 	lw	v0,8(a2)
  1027dc:	00042438 	dsll	a0,a0,0x10
  1027e0:	00641825 	or	v1,v1,a0
  1027e4:	24c6000c 	addiu	a2,a2,12
  1027e8:	0002103c 	dsll32	v0,v0,0x0
  1027ec:	00621825 	or	v1,v1,v0
  1027f0:	fd230000 	sd	v1,0(t1)
  1027f4:	25290008 	addiu	t1,t1,8
  1027f8:	fd270000 	sd	a3,0(t1)
  1027fc:	14a0fff2 	bnez	a1,1027c8 <gsKit_prim_line_strip_3d+0x228>
  102800:	25290008 	addiu	t1,t1,8
  102804:	0200e82d 	move	sp,s0
  102808:	03c0e82d 	move	sp,s8
  10280c:	dfbe0030 	ld	s8,48(sp)
  102810:	dfb00020 	ld	s0,32(sp)
  102814:	03e00008 	jr	ra
  102818:	27bd0040 	addiu	sp,sp,64
  10281c:	00000000 	nop
  102820:	c4a00000 	lwc1	$f0,0(a1)
  102824:	46040002 	mul.s	$f0,$f0,$f4
  102828:	1000ff85 	b	102640 <gsKit_prim_line_strip_3d+0xa0>
  10282c:	e4a00000 	swc1	$f0,0(a1)

00102830 <gsKit_prim_sprite>:
  102830:	27bdffe0 	addiu	sp,sp,-32
  102834:	24020001 	li	v0,1
  102838:	ffb10010 	sd	s1,16(sp)
  10283c:	0080502d 	move	t2,a0
  102840:	ffb00000 	sd	s0,0(sp)
  102844:	46006a06 	mov.s	$f8,$f13
  102848:	46007986 	mov.s	$f6,$f15
  10284c:	00a0802d 	move	s0,a1
  102850:	84830004 	lh	v1,4(a0)
  102854:	10620078 	beq	v1,v0,102a38 <gsKit_prim_sprite+0x208>
  102858:	00c0882d 	move	s1,a2
  10285c:	3c014180 	lui	at,0x4180
  102860:	44810000 	mtc1	at,$f0
  102864:	240f0002 	li	t7,2
  102868:	8d490050 	lw	t1,80(t2)
  10286c:	240b0020 	li	t3,32
  102870:	46006082 	mul.s	$f2,$f12,$f0
  102874:	8d440030 	lw	a0,48(t2)
  102878:	46003182 	mul.s	$f6,$f6,$f0
  10287c:	8d280024 	lw	t0,36(t1)
  102880:	46007102 	mul.s	$f4,$f14,$f0
  102884:	240e1600 	li	t6,5632
  102888:	46004002 	mul.s	$f0,$f8,$f0
  10288c:	25030002 	addiu	v1,t0,2
  102890:	46001224 	cvt.w.s	$f8,$f2
  102894:	44074000 	mfc1	a3,$f8
  102898:	3402fffe 	li	v0,0xfffe
  10289c:	0043102b 	sltu	v0,v0,v1
  1028a0:	460020a4 	cvt.w.s	$f2,$f4
  1028a4:	44061000 	mfc1	a2,$f2
  1028a8:	460000a4 	cvt.w.s	$f2,$f0
  1028ac:	44031000 	mfc1	v1,$f2
  1028b0:	46003024 	cvt.w.s	$f0,$f6
  1028b4:	44050000 	mfc1	a1,$f0
  1028b8:	00e4c021 	addu	t8,a3,a0
  1028bc:	00c4c821 	addu	t9,a2,a0
  1028c0:	00646021 	addu	t4,v1,a0
  1028c4:	1040000c 	beqz	v0,1028f8 <gsKit_prim_sprite+0xc8>
  1028c8:	00a46821 	addu	t5,a1,a0
  1028cc:	3c021000 	lui	v0,0x1000
  1028d0:	8d250008 	lw	a1,8(t1)
  1028d4:	01021025 	or	v0,t0,v0
  1028d8:	8d240020 	lw	a0,32(t1)
  1028dc:	0002103c 	dsll32	v0,v0,0x0
  1028e0:	24a30010 	addiu	v1,a1,16
  1028e4:	0002103e 	dsrl32	v0,v0,0x0
  1028e8:	ad230008 	sw	v1,8(t1)
  1028ec:	fc820000 	sd	v0,0(a0)
  1028f0:	ad200024 	sw	zero,36(t1)
  1028f4:	ad250020 	sw	a1,32(t1)
  1028f8:	8d230014 	lw	v1,20(t1)
  1028fc:	106e0048 	beq	v1,t6,102a20 <gsKit_prim_sprite+0x1f0>
  102900:	2402000b 	li	v0,11
  102904:	10620008 	beq	v1,v0,102928 <gsKit_prim_sprite+0xf8>
  102908:	2402000e 	li	v0,14
  10290c:	50620007 	beql	v1,v0,10292c <gsKit_prim_sprite+0xfc>
  102910:	8d220008 	lw	v0,8(t1)
  102914:	8d220018 	lw	v0,24(t1)
  102918:	8d23001c 	lw	v1,28(t1)
  10291c:	dc440000 	ld	a0,0(v0)
  102920:	00641825 	or	v1,v1,a0
  102924:	fc430000 	sd	v1,0(v0)
  102928:	8d220008 	lw	v0,8(t1)
  10292c:	240f0003 	li	t7,3
  102930:	ad20001c 	sw	zero,28(t1)
  102934:	240b0030 	li	t3,48
  102938:	ad220018 	sw	v0,24(t1)
  10293c:	8d450050 	lw	a1,80(t2)
  102940:	8d240008 	lw	a0,8(t1)
  102944:	8d22001c 	lw	v0,28(t1)
  102948:	8d230024 	lw	v1,36(t1)
  10294c:	008b3021 	addu	a2,a0,t3
  102950:	8ca70018 	lw	a3,24(a1)
  102954:	24420001 	addiu	v0,v0,1
  102958:	006f1821 	addu	v1,v1,t7
  10295c:	0080402d 	move	t0,a0
  102960:	ad260008 	sw	a2,8(t1)
  102964:	ad22001c 	sw	v0,28(t1)
  102968:	ad2e0014 	sw	t6,20(t1)
  10296c:	10870022 	beq	a0,a3,1029f8 <gsKit_prim_sprite+0x1c8>
  102970:	ad230024 	sw	v1,36(t1)
  102974:	8d420090 	lw	v0,144(t2)
  102978:	0180382d 	move	a3,t4
  10297c:	8d430098 	lw	v1,152(t2)
  102980:	01a0302d 	move	a2,t5
  102984:	8d450094 	lw	a1,148(t2)
  102988:	00021178 	dsll	v0,v0,0x5
  10298c:	000319b8 	dsll	v1,v1,0x6
  102990:	8d44008c 	lw	a0,140(t2)
  102994:	00431025 	or	v0,v0,v1
  102998:	000529f8 	dsll	a1,a1,0x7
  10299c:	00451025 	or	v0,v0,a1
  1029a0:	00042278 	dsll	a0,a0,0x9
  1029a4:	00441025 	or	v0,v0,a0
  1029a8:	24030006 	li	v1,6
  1029ac:	00431025 	or	v0,v0,v1
  1029b0:	00073c38 	dsll	a3,a3,0x10
  1029b4:	fd020000 	sd	v0,0(t0)
  1029b8:	00063438 	dsll	a2,a2,0x10
  1029bc:	25080008 	addiu	t0,t0,8
  1029c0:	0010103c 	dsll32	v0,s0,0x0
  1029c4:	fd110000 	sd	s1,0(t0)
  1029c8:	03073825 	or	a3,t8,a3
  1029cc:	03263025 	or	a2,t9,a2
  1029d0:	dfb10010 	ld	s1,16(sp)
  1029d4:	dfb00000 	ld	s0,0(sp)
  1029d8:	25080008 	addiu	t0,t0,8
  1029dc:	00c23025 	or	a2,a2,v0
  1029e0:	00e23825 	or	a3,a3,v0
  1029e4:	fd060008 	sd	a2,8(t0)
  1029e8:	fd070000 	sd	a3,0(t0)
  1029ec:	03e00008 	jr	ra
  1029f0:	27bd0020 	addiu	sp,sp,32
  1029f4:	00000000 	nop
  1029f8:	3c024400 	lui	v0,0x4400
  1029fc:	0002103c 	dsll32	v0,v0,0x0
  102a00:	34428000 	ori	v0,v0,0x8000
  102a04:	24880008 	addiu	t0,a0,8
  102a08:	fc820000 	sd	v0,0(a0)
  102a0c:	24025510 	li	v0,21776
  102a10:	fd020000 	sd	v0,0(t0)
  102a14:	1000ffd7 	b	102974 <gsKit_prim_sprite+0x144>
  102a18:	25080008 	addiu	t0,t0,8
  102a1c:	00000000 	nop
  102a20:	8d22001c 	lw	v0,28(t1)
  102a24:	28427fff 	slti	v0,v0,32767
  102a28:	5440ffc5 	bnezl	v0,102940 <gsKit_prim_sprite+0x110>
  102a2c:	8d450050 	lw	a1,80(t2)
  102a30:	1000ffb4 	b	102904 <gsKit_prim_sprite+0xd4>
  102a34:	2402000b 	li	v0,11
  102a38:	3c013f00 	lui	at,0x3f00
  102a3c:	44810000 	mtc1	at,$f0
  102a40:	00000000 	nop
  102a44:	46007982 	mul.s	$f6,$f15,$f0
  102a48:	1000ff84 	b	10285c <gsKit_prim_sprite+0x2c>
  102a4c:	46006a02 	mul.s	$f8,$f13,$f0

00102a50 <gsKit_prim_triangle_3d>:
  102a50:	27bdffb0 	addiu	sp,sp,-80
  102a54:	24020001 	li	v0,1
  102a58:	ffb40040 	sd	s4,64(sp)
  102a5c:	0080602d 	move	t4,a0
  102a60:	ffb20020 	sd	s2,32(sp)
  102a64:	46006986 	mov.s	$f6,$f13
  102a68:	ffb10010 	sd	s1,16(sp)
  102a6c:	00a0902d 	move	s2,a1
  102a70:	ffb00000 	sd	s0,0(sp)
  102a74:	46007886 	mov.s	$f2,$f15
  102a78:	ffb30030 	sd	s3,48(sp)
  102a7c:	00c0882d 	move	s1,a2
  102a80:	46008a86 	mov.s	$f10,$f17
  102a84:	00e0802d 	move	s0,a3
  102a88:	84830004 	lh	v1,4(a0)
  102a8c:	1062007e 	beq	v1,v0,102c88 <gsKit_prim_triangle_3d+0x238>
  102a90:	0100a02d 	move	s4,t0
  102a94:	3c014180 	lui	at,0x4180
  102a98:	44810000 	mtc1	at,$f0
  102a9c:	3404fffe 	li	a0,0xfffe
  102aa0:	8d8b0050 	lw	t3,80(t4)
  102aa4:	240a0003 	li	t2,3
  102aa8:	46006202 	mul.s	$f8,$f12,$f0
  102aac:	8d830030 	lw	v1,48(t4)
  102ab0:	46003182 	mul.s	$f6,$f6,$f0
  102ab4:	8d6d0024 	lw	t5,36(t3)
  102ab8:	46007102 	mul.s	$f4,$f14,$f0
  102abc:	24130030 	li	s3,48
  102ac0:	25a20003 	addiu	v0,t5,3
  102ac4:	46001082 	mul.s	$f2,$f2,$f0
  102ac8:	46005282 	mul.s	$f10,$f10,$f0
  102acc:	0082202b 	sltu	a0,a0,v0
  102ad0:	46008002 	mul.s	$f0,$f16,$f0
  102ad4:	24191300 	li	t9,4864
  102ad8:	46004324 	cvt.w.s	$f12,$f8
  102adc:	44026000 	mfc1	v0,$f12
  102ae0:	46003224 	cvt.w.s	$f8,$f6
  102ae4:	44054000 	mfc1	a1,$f8
  102ae8:	460021a4 	cvt.w.s	$f6,$f4
  102aec:	44073000 	mfc1	a3,$f6
  102af0:	00437021 	addu	t6,v0,v1
  102af4:	46001124 	cvt.w.s	$f4,$f2
  102af8:	44082000 	mfc1	t0,$f4
  102afc:	00a34821 	addu	t1,a1,v1
  102b00:	460000a4 	cvt.w.s	$f2,$f0
  102b04:	44061000 	mfc1	a2,$f2
  102b08:	46005024 	cvt.w.s	$f0,$f10
  102b0c:	44020000 	mfc1	v0,$f0
  102b10:	00e3c021 	addu	t8,a3,v1
  102b14:	01034021 	addu	t0,t0,v1
  102b18:	00c37821 	addu	t7,a2,v1
  102b1c:	1080000c 	beqz	a0,102b50 <gsKit_prim_triangle_3d+0x100>
  102b20:	00433821 	addu	a3,v0,v1
  102b24:	3c021000 	lui	v0,0x1000
  102b28:	8d650008 	lw	a1,8(t3)
  102b2c:	01a21025 	or	v0,t5,v0
  102b30:	8d640020 	lw	a0,32(t3)
  102b34:	0002103c 	dsll32	v0,v0,0x0
  102b38:	24a30010 	addiu	v1,a1,16
  102b3c:	0002103e 	dsrl32	v0,v0,0x0
  102b40:	ad630008 	sw	v1,8(t3)
  102b44:	fc820000 	sd	v0,0(a0)
  102b48:	ad600024 	sw	zero,36(t3)
  102b4c:	ad650020 	sw	a1,32(t3)
  102b50:	8d630014 	lw	v1,20(t3)
  102b54:	50790046 	beql	v1,t9,102c70 <gsKit_prim_triangle_3d+0x220>
  102b58:	8d62001c 	lw	v0,28(t3)
  102b5c:	2402000b 	li	v0,11
  102b60:	10620008 	beq	v1,v0,102b84 <gsKit_prim_triangle_3d+0x134>
  102b64:	2402000e 	li	v0,14
  102b68:	50620007 	beql	v1,v0,102b88 <gsKit_prim_triangle_3d+0x138>
  102b6c:	8d620008 	lw	v0,8(t3)
  102b70:	8d620018 	lw	v0,24(t3)
  102b74:	8d63001c 	lw	v1,28(t3)
  102b78:	dc440000 	ld	a0,0(v0)
  102b7c:	00641825 	or	v1,v1,a0
  102b80:	fc430000 	sd	v1,0(v0)
  102b84:	8d620008 	lw	v0,8(t3)
  102b88:	240a0004 	li	t2,4
  102b8c:	ad60001c 	sw	zero,28(t3)
  102b90:	24130040 	li	s3,64
  102b94:	ad620018 	sw	v0,24(t3)
  102b98:	8d63001c 	lw	v1,28(t3)
  102b9c:	8d620024 	lw	v0,36(t3)
  102ba0:	24630001 	addiu	v1,v1,1
  102ba4:	ad790014 	sw	t9,20(t3)
  102ba8:	004a1021 	addu	v0,v0,t2
  102bac:	ad63001c 	sw	v1,28(t3)
  102bb0:	ad620024 	sw	v0,36(t3)
  102bb4:	8d650008 	lw	a1,8(t3)
  102bb8:	00094c38 	dsll	t1,t1,0x10
  102bbc:	8d860090 	lw	a2,144(t4)
  102bc0:	00084438 	dsll	t0,t0,0x10
  102bc4:	8d820098 	lw	v0,152(t4)
  102bc8:	00073c38 	dsll	a3,a3,0x10
  102bcc:	8d830094 	lw	v1,148(t4)
  102bd0:	00063178 	dsll	a2,a2,0x5
  102bd4:	000211b8 	dsll	v0,v0,0x6
  102bd8:	8d84008c 	lw	a0,140(t4)
  102bdc:	00c23025 	or	a2,a2,v0
  102be0:	000319f8 	dsll	v1,v1,0x7
  102be4:	00c33025 	or	a2,a2,v1
  102be8:	00042278 	dsll	a0,a0,0x9
  102bec:	00c43025 	or	a2,a2,a0
  102bf0:	24020003 	li	v0,3
  102bf4:	0012183c 	dsll32	v1,s2,0x0
  102bf8:	0011203c 	dsll32	a0,s1,0x0
  102bfc:	0010503c 	dsll32	t2,s0,0x0
  102c00:	00c23025 	or	a2,a2,v0
  102c04:	01c94825 	or	t1,t6,t1
  102c08:	03084025 	or	t0,t8,t0
  102c0c:	00b31021 	addu	v0,a1,s3
  102c10:	01e73825 	or	a3,t7,a3
  102c14:	fcb40018 	sd	s4,24(a1)
  102c18:	01234825 	or	t1,t1,v1
  102c1c:	dfb40040 	ld	s4,64(sp)
  102c20:	01044025 	or	t0,t0,a0
  102c24:	dfb30030 	ld	s3,48(sp)
  102c28:	00ea3825 	or	a3,a3,t2
  102c2c:	dfb20020 	ld	s2,32(sp)
  102c30:	3c0300f5 	lui	v1,0xf5
  102c34:	34635510 	ori	v1,v1,0x5510
  102c38:	dfb10010 	ld	s1,16(sp)
  102c3c:	dfb00000 	ld	s0,0(sp)
  102c40:	ad620008 	sw	v0,8(t3)
  102c44:	3c026400 	lui	v0,0x6400
  102c48:	0002103c 	dsll32	v0,v0,0x0
  102c4c:	34428000 	ori	v0,v0,0x8000
  102c50:	fca70030 	sd	a3,48(a1)
  102c54:	fca20000 	sd	v0,0(a1)
  102c58:	fca30008 	sd	v1,8(a1)
  102c5c:	fca60010 	sd	a2,16(a1)
  102c60:	fca90020 	sd	t1,32(a1)
  102c64:	fca80028 	sd	t0,40(a1)
  102c68:	03e00008 	jr	ra
  102c6c:	27bd0050 	addiu	sp,sp,80
  102c70:	28427fff 	slti	v0,v0,32767
  102c74:	1040ffba 	beqz	v0,102b60 <gsKit_prim_triangle_3d+0x110>
  102c78:	2402000b 	li	v0,11
  102c7c:	1000ffc7 	b	102b9c <gsKit_prim_triangle_3d+0x14c>
  102c80:	8d63001c 	lw	v1,28(t3)
  102c84:	00000000 	nop
  102c88:	3c013f00 	lui	at,0x3f00
  102c8c:	44810000 	mtc1	at,$f0
  102c90:	00000000 	nop
  102c94:	46008a82 	mul.s	$f10,$f17,$f0
  102c98:	46006982 	mul.s	$f6,$f13,$f0
  102c9c:	1000ff7d 	b	102a94 <gsKit_prim_triangle_3d+0x44>
  102ca0:	46007882 	mul.s	$f2,$f15,$f0
  102ca4:	00000000 	nop

00102ca8 <gsKit_prim_triangle_strip>:
  102ca8:	000610c0 	sll	v0,a2,0x3
  102cac:	27bdffc0 	addiu	sp,sp,-64
  102cb0:	2442000f 	addiu	v0,v0,15
  102cb4:	ffbe0030 	sd	s8,48(sp)
  102cb8:	00021102 	srl	v0,v0,0x4
  102cbc:	ffb00020 	sd	s0,32(sp)
  102cc0:	00021100 	sll	v0,v0,0x4
  102cc4:	03a0f02d 	move	s8,sp
  102cc8:	03a0802d 	move	s0,sp
  102ccc:	00066840 	sll	t5,a2,0x1
  102cd0:	03a2e823 	subu	sp,sp,v0
  102cd4:	0100782d 	move	t7,t0
  102cd8:	0080582d 	move	t3,a0
  102cdc:	00e0c82d 	move	t9,a3
  102ce0:	24c80002 	addiu	t0,a2,2
  102ce4:	03a0c02d 	move	t8,sp
  102ce8:	19a00020 	blez	t5,102d6c <gsKit_prim_triangle_strip+0xc4>
  102cec:	0000502d 	move	t2,zero
  102cf0:	3c014180 	lui	at,0x4180
  102cf4:	44811000 	mtc1	at,$f2
  102cf8:	24090001 	li	t1,1
  102cfc:	3c013f00 	lui	at,0x3f00
  102d00:	44812000 	mtc1	at,$f4
  102d04:	84870004 	lh	a3,4(a0)
  102d08:	03a0202d 	move	a0,sp
  102d0c:	00000000 	nop
  102d10:	c4a00000 	lwc1	$f0,0(a1)
  102d14:	254a0002 	addiu	t2,t2,2
  102d18:	8d630030 	lw	v1,48(t3)
  102d1c:	014d302a 	slt	a2,t2,t5
  102d20:	46020002 	mul.s	$f0,$f0,$f2
  102d24:	24a50004 	addiu	a1,a1,4
  102d28:	460001a4 	cvt.w.s	$f6,$f0
  102d2c:	44023000 	mfc1	v0,$f6
  102d30:	00000000 	nop
  102d34:	00431021 	addu	v0,v0,v1
  102d38:	10e90073 	beq	a3,t1,102f08 <gsKit_prim_triangle_strip+0x260>
  102d3c:	ac820000 	sw	v0,0(a0)
  102d40:	c4a00000 	lwc1	$f0,0(a1)
  102d44:	24a50004 	addiu	a1,a1,4
  102d48:	8d630030 	lw	v1,48(t3)
  102d4c:	46020002 	mul.s	$f0,$f0,$f2
  102d50:	460001a4 	cvt.w.s	$f6,$f0
  102d54:	44023000 	mfc1	v0,$f6
  102d58:	00000000 	nop
  102d5c:	00431021 	addu	v0,v0,v1
  102d60:	ac820004 	sw	v0,4(a0)
  102d64:	14c0ffea 	bnez	a2,102d10 <gsKit_prim_triangle_strip+0x68>
  102d68:	24840008 	addiu	a0,a0,8
  102d6c:	8d6c0050 	lw	t4,80(t3)
  102d70:	3402fffe 	li	v0,0xfffe
  102d74:	00087100 	sll	t6,t0,0x4
  102d78:	8d840024 	lw	a0,36(t4)
  102d7c:	00881821 	addu	v1,a0,t0
  102d80:	0043102b 	sltu	v0,v0,v1
  102d84:	1040000c 	beqz	v0,102db8 <gsKit_prim_triangle_strip+0x110>
  102d88:	2409000e 	li	t1,14
  102d8c:	3c021000 	lui	v0,0x1000
  102d90:	8d850008 	lw	a1,8(t4)
  102d94:	00821025 	or	v0,a0,v0
  102d98:	ad800024 	sw	zero,36(t4)
  102d9c:	8d840020 	lw	a0,32(t4)
  102da0:	0002103c 	dsll32	v0,v0,0x0
  102da4:	24a30010 	addiu	v1,a1,16
  102da8:	0002103e 	dsrl32	v0,v0,0x0
  102dac:	ad830008 	sw	v1,8(t4)
  102db0:	fc820000 	sd	v0,0(a0)
  102db4:	ad850020 	sw	a1,32(t4)
  102db8:	8d830014 	lw	v1,20(t4)
  102dbc:	2402000b 	li	v0,11
  102dc0:	50620009 	beql	v1,v0,102de8 <gsKit_prim_triangle_strip+0x140>
  102dc4:	8d660050 	lw	a2,80(t3)
  102dc8:	50690007 	beql	v1,t1,102de8 <gsKit_prim_triangle_strip+0x140>
  102dcc:	8d660050 	lw	a2,80(t3)
  102dd0:	8d820018 	lw	v0,24(t4)
  102dd4:	8d83001c 	lw	v1,28(t4)
  102dd8:	dc440000 	ld	a0,0(v0)
  102ddc:	00641825 	or	v1,v1,a0
  102de0:	fc430000 	sd	v1,0(v0)
  102de4:	8d660050 	lw	a2,80(t3)
  102de8:	25050001 	addiu	a1,t0,1
  102dec:	ad80001c 	sw	zero,28(t4)
  102df0:	35048000 	ori	a0,t0,0x8000
  102df4:	8cc20024 	lw	v0,36(a2)
  102df8:	34078000 	li	a3,0x8000
  102dfc:	00073b7c 	dsll32	a3,a3,0xd
  102e00:	8cc3001c 	lw	v1,28(a2)
  102e04:	00873825 	or	a3,a0,a3
  102e08:	00451021 	addu	v0,v0,a1
  102e0c:	acc90014 	sw	t1,20(a2)
  102e10:	24630001 	addiu	v1,v1,1
  102e14:	acc20024 	sw	v0,36(a2)
  102e18:	acc3001c 	sw	v1,28(a2)
  102e1c:	25ce0010 	addiu	t6,t6,16
  102e20:	8cc80008 	lw	t0,8(a2)
  102e24:	0000502d 	move	t2,zero
  102e28:	8d640090 	lw	a0,144(t3)
  102e2c:	8d620098 	lw	v0,152(t3)
  102e30:	25090008 	addiu	t1,t0,8
  102e34:	8d630094 	lw	v1,148(t3)
  102e38:	00042178 	dsll	a0,a0,0x5
  102e3c:	000211b8 	dsll	v0,v0,0x6
  102e40:	8d65008c 	lw	a1,140(t3)
  102e44:	00822025 	or	a0,a0,v0
  102e48:	000319f8 	dsll	v1,v1,0x7
  102e4c:	00832025 	or	a0,a0,v1
  102e50:	00052a78 	dsll	a1,a1,0x9
  102e54:	24020004 	li	v0,4
  102e58:	2403000e 	li	v1,14
  102e5c:	00852025 	or	a0,a0,a1
  102e60:	fd070000 	sd	a3,0(t0)
  102e64:	00822025 	or	a0,a0,v0
  102e68:	fd230000 	sd	v1,0(t1)
  102e6c:	25290008 	addiu	t1,t1,8
  102e70:	8d830008 	lw	v1,8(t4)
  102e74:	fd240000 	sd	a0,0(t1)
  102e78:	010e4021 	addu	t0,t0,t6
  102e7c:	25290008 	addiu	t1,t1,8
  102e80:	24020001 	li	v0,1
  102e84:	fd200000 	sd	zero,0(t1)
  102e88:	25290008 	addiu	t1,t1,8
  102e8c:	fd2f0000 	sd	t7,0(t1)
  102e90:	25290008 	addiu	t1,t1,8
  102e94:	fd220000 	sd	v0,0(t1)
  102e98:	25290008 	addiu	t1,t1,8
  102e9c:	acc80008 	sw	t0,8(a2)
  102ea0:	19a00012 	blez	t5,102eec <gsKit_prim_triangle_strip+0x244>
  102ea4:	ad830018 	sw	v1,24(t4)
  102ea8:	0019383c 	dsll32	a3,t9,0x0
  102eac:	0300282d 	move	a1,t8
  102eb0:	24060005 	li	a2,5
  102eb4:	00000000 	nop
  102eb8:	8ca20004 	lw	v0,4(a1)
  102ebc:	254a0002 	addiu	t2,t2,2
  102ec0:	8ca30000 	lw	v1,0(a1)
  102ec4:	014d202a 	slt	a0,t2,t5
  102ec8:	00021438 	dsll	v0,v0,0x10
  102ecc:	24a50008 	addiu	a1,a1,8
  102ed0:	00621825 	or	v1,v1,v0
  102ed4:	00671825 	or	v1,v1,a3
  102ed8:	fd230000 	sd	v1,0(t1)
  102edc:	25290008 	addiu	t1,t1,8
  102ee0:	fd260000 	sd	a2,0(t1)
  102ee4:	1480fff4 	bnez	a0,102eb8 <gsKit_prim_triangle_strip+0x210>
  102ee8:	25290008 	addiu	t1,t1,8
  102eec:	0200e82d 	move	sp,s0
  102ef0:	03c0e82d 	move	sp,s8
  102ef4:	dfbe0030 	ld	s8,48(sp)
  102ef8:	dfb00020 	ld	s0,32(sp)
  102efc:	03e00008 	jr	ra
  102f00:	27bd0040 	addiu	sp,sp,64
  102f04:	00000000 	nop
  102f08:	c4a00000 	lwc1	$f0,0(a1)
  102f0c:	46040002 	mul.s	$f0,$f0,$f4
  102f10:	1000ff8b 	b	102d40 <gsKit_prim_triangle_strip+0x98>
  102f14:	e4a00000 	swc1	$f0,0(a1)

00102f18 <gsKit_prim_triangle_strip_3d>:
  102f18:	2402000c 	li	v0,12
  102f1c:	27bdffc0 	addiu	sp,sp,-64
  102f20:	00c21018 	mult	v0,a2,v0
  102f24:	00067840 	sll	t7,a2,0x1
  102f28:	ffbe0030 	sd	s8,48(sp)
  102f2c:	01e61821 	addu	v1,t7,a2
  102f30:	ffb00020 	sd	s0,32(sp)
  102f34:	03a0f02d 	move	s8,sp
  102f38:	03a0802d 	move	s0,sp
  102f3c:	00c0702d 	move	t6,a2
  102f40:	2442000f 	addiu	v0,v0,15
  102f44:	0080502d 	move	t2,a0
  102f48:	00021102 	srl	v0,v0,0x4
  102f4c:	00e0c02d 	move	t8,a3
  102f50:	00021100 	sll	v0,v0,0x4
  102f54:	24cc0002 	addiu	t4,a2,2
  102f58:	03a2e823 	subu	sp,sp,v0
  102f5c:	0000402d 	move	t0,zero
  102f60:	18600024 	blez	v1,102ff4 <gsKit_prim_triangle_strip_3d+0xdc>
  102f64:	03a0c82d 	move	t9,sp
  102f68:	3c014180 	lui	at,0x4180
  102f6c:	44811000 	mtc1	at,$f2
  102f70:	0060482d 	move	t1,v1
  102f74:	3c013f00 	lui	at,0x3f00
  102f78:	44812000 	mtc1	at,$f4
  102f7c:	240b0001 	li	t3,1
  102f80:	84870004 	lh	a3,4(a0)
  102f84:	03a0202d 	move	a0,sp
  102f88:	c4a00000 	lwc1	$f0,0(a1)
  102f8c:	25080003 	addiu	t0,t0,3
  102f90:	8d430030 	lw	v1,48(t2)
  102f94:	0109302a 	slt	a2,t0,t1
  102f98:	46020002 	mul.s	$f0,$f0,$f2
  102f9c:	24a50004 	addiu	a1,a1,4
  102fa0:	460001a4 	cvt.w.s	$f6,$f0
  102fa4:	44023000 	mfc1	v0,$f6
  102fa8:	00000000 	nop
  102fac:	00431021 	addu	v0,v0,v1
  102fb0:	10eb0079 	beq	a3,t3,103198 <gsKit_prim_triangle_strip_3d+0x280>
  102fb4:	ac820000 	sw	v0,0(a0)
  102fb8:	c4a00000 	lwc1	$f0,0(a1)
  102fbc:	24a50004 	addiu	a1,a1,4
  102fc0:	8d430030 	lw	v1,48(t2)
  102fc4:	46020002 	mul.s	$f0,$f0,$f2
  102fc8:	460001a4 	cvt.w.s	$f6,$f0
  102fcc:	44023000 	mfc1	v0,$f6
  102fd0:	c4a00000 	lwc1	$f0,0(a1)
  102fd4:	24a50004 	addiu	a1,a1,4
  102fd8:	46020002 	mul.s	$f0,$f0,$f2
  102fdc:	00431021 	addu	v0,v0,v1
  102fe0:	ac820004 	sw	v0,4(a0)
  102fe4:	460001a4 	cvt.w.s	$f6,$f0
  102fe8:	e4860008 	swc1	$f6,8(a0)
  102fec:	14c0ffe6 	bnez	a2,102f88 <gsKit_prim_triangle_strip_3d+0x70>
  102ff0:	2484000c 	addiu	a0,a0,12
  102ff4:	8d4b0050 	lw	t3,80(t2)
  102ff8:	3402fffe 	li	v0,0xfffe
  102ffc:	000c6900 	sll	t5,t4,0x4
  103000:	8d640024 	lw	a0,36(t3)
  103004:	008c1821 	addu	v1,a0,t4
  103008:	0043102b 	sltu	v0,v0,v1
  10300c:	1040000c 	beqz	v0,103040 <gsKit_prim_triangle_strip_3d+0x128>
  103010:	2407000e 	li	a3,14
  103014:	3c021000 	lui	v0,0x1000
  103018:	8d650008 	lw	a1,8(t3)
  10301c:	00821025 	or	v0,a0,v0
  103020:	ad600024 	sw	zero,36(t3)
  103024:	8d640020 	lw	a0,32(t3)
  103028:	0002103c 	dsll32	v0,v0,0x0
  10302c:	24a30010 	addiu	v1,a1,16
  103030:	0002103e 	dsrl32	v0,v0,0x0
  103034:	ad630008 	sw	v1,8(t3)
  103038:	fc820000 	sd	v0,0(a0)
  10303c:	ad650020 	sw	a1,32(t3)
  103040:	8d630014 	lw	v1,20(t3)
  103044:	2402000b 	li	v0,11
  103048:	50620009 	beql	v1,v0,103070 <gsKit_prim_triangle_strip_3d+0x158>
  10304c:	8d460050 	lw	a2,80(t2)
  103050:	50670007 	beql	v1,a3,103070 <gsKit_prim_triangle_strip_3d+0x158>
  103054:	8d460050 	lw	a2,80(t2)
  103058:	8d620018 	lw	v0,24(t3)
  10305c:	8d63001c 	lw	v1,28(t3)
  103060:	dc440000 	ld	a0,0(v0)
  103064:	00641825 	or	v1,v1,a0
  103068:	fc430000 	sd	v1,0(v0)
  10306c:	8d460050 	lw	a2,80(t2)
  103070:	25850001 	addiu	a1,t4,1
  103074:	ad60001c 	sw	zero,28(t3)
  103078:	35848000 	ori	a0,t4,0x8000
  10307c:	8cc20024 	lw	v0,36(a2)
  103080:	34088000 	li	t0,0x8000
  103084:	0008437c 	dsll32	t0,t0,0xd
  103088:	8cc3001c 	lw	v1,28(a2)
  10308c:	00884025 	or	t0,a0,t0
  103090:	00451021 	addu	v0,v0,a1
  103094:	acc70014 	sw	a3,20(a2)
  103098:	24630001 	addiu	v1,v1,1
  10309c:	acc20024 	sw	v0,36(a2)
  1030a0:	acc3001c 	sw	v1,28(a2)
  1030a4:	25ad0010 	addiu	t5,t5,16
  1030a8:	8cc70008 	lw	a3,8(a2)
  1030ac:	01ee6021 	addu	t4,t7,t6
  1030b0:	8d440090 	lw	a0,144(t2)
  1030b4:	8d420098 	lw	v0,152(t2)
  1030b8:	24e90008 	addiu	t1,a3,8
  1030bc:	8d430094 	lw	v1,148(t2)
  1030c0:	00042178 	dsll	a0,a0,0x5
  1030c4:	000211b8 	dsll	v0,v0,0x6
  1030c8:	8d45008c 	lw	a1,140(t2)
  1030cc:	00822025 	or	a0,a0,v0
  1030d0:	000319f8 	dsll	v1,v1,0x7
  1030d4:	00832025 	or	a0,a0,v1
  1030d8:	00052a78 	dsll	a1,a1,0x9
  1030dc:	24020004 	li	v0,4
  1030e0:	2403000e 	li	v1,14
  1030e4:	00852025 	or	a0,a0,a1
  1030e8:	fce80000 	sd	t0,0(a3)
  1030ec:	00822025 	or	a0,a0,v0
  1030f0:	fd230000 	sd	v1,0(t1)
  1030f4:	25290008 	addiu	t1,t1,8
  1030f8:	8d630008 	lw	v1,8(t3)
  1030fc:	fd240000 	sd	a0,0(t1)
  103100:	00ed3821 	addu	a3,a3,t5
  103104:	25290008 	addiu	t1,t1,8
  103108:	24020001 	li	v0,1
  10310c:	fd200000 	sd	zero,0(t1)
  103110:	0000402d 	move	t0,zero
  103114:	25290008 	addiu	t1,t1,8
  103118:	acc70008 	sw	a3,8(a2)
  10311c:	fd380000 	sd	t8,0(t1)
  103120:	25290008 	addiu	t1,t1,8
  103124:	fd220000 	sd	v0,0(t1)
  103128:	25290008 	addiu	t1,t1,8
  10312c:	19800013 	blez	t4,10317c <gsKit_prim_triangle_strip_3d+0x264>
  103130:	ad630018 	sw	v1,24(t3)
  103134:	0320302d 	move	a2,t9
  103138:	24070005 	li	a3,5
  10313c:	00000000 	nop
  103140:	8cc40004 	lw	a0,4(a2)
  103144:	25080003 	addiu	t0,t0,3
  103148:	8cc30000 	lw	v1,0(a2)
  10314c:	010c282a 	slt	a1,t0,t4
  103150:	8cc20008 	lw	v0,8(a2)
  103154:	00042438 	dsll	a0,a0,0x10
  103158:	00641825 	or	v1,v1,a0
  10315c:	24c6000c 	addiu	a2,a2,12
  103160:	0002103c 	dsll32	v0,v0,0x0
  103164:	00621825 	or	v1,v1,v0
  103168:	fd230000 	sd	v1,0(t1)
  10316c:	25290008 	addiu	t1,t1,8
  103170:	fd270000 	sd	a3,0(t1)
  103174:	14a0fff2 	bnez	a1,103140 <gsKit_prim_triangle_strip_3d+0x228>
  103178:	25290008 	addiu	t1,t1,8
  10317c:	0200e82d 	move	sp,s0
  103180:	03c0e82d 	move	sp,s8
  103184:	dfbe0030 	ld	s8,48(sp)
  103188:	dfb00020 	ld	s0,32(sp)
  10318c:	03e00008 	jr	ra
  103190:	27bd0040 	addiu	sp,sp,64
  103194:	00000000 	nop
  103198:	c4a00000 	lwc1	$f0,0(a1)
  10319c:	46040002 	mul.s	$f0,$f0,$f4
  1031a0:	1000ff85 	b	102fb8 <gsKit_prim_triangle_strip_3d+0xa0>
  1031a4:	e4a00000 	swc1	$f0,0(a1)

001031a8 <gsKit_prim_triangle_fan>:
  1031a8:	000610c0 	sll	v0,a2,0x3
  1031ac:	27bdffc0 	addiu	sp,sp,-64
  1031b0:	2442000f 	addiu	v0,v0,15
  1031b4:	ffbe0030 	sd	s8,48(sp)
  1031b8:	00021102 	srl	v0,v0,0x4
  1031bc:	ffb00020 	sd	s0,32(sp)
  1031c0:	00021100 	sll	v0,v0,0x4
  1031c4:	03a0f02d 	move	s8,sp
  1031c8:	03a0802d 	move	s0,sp
  1031cc:	00066840 	sll	t5,a2,0x1
  1031d0:	03a2e823 	subu	sp,sp,v0
  1031d4:	0100782d 	move	t7,t0
  1031d8:	0080582d 	move	t3,a0
  1031dc:	00e0c82d 	move	t9,a3
  1031e0:	24c80002 	addiu	t0,a2,2
  1031e4:	03a0c02d 	move	t8,sp
  1031e8:	19a00020 	blez	t5,10326c <gsKit_prim_triangle_fan+0xc4>
  1031ec:	0000502d 	move	t2,zero
  1031f0:	3c014180 	lui	at,0x4180
  1031f4:	44811000 	mtc1	at,$f2
  1031f8:	24090001 	li	t1,1
  1031fc:	3c013f00 	lui	at,0x3f00
  103200:	44812000 	mtc1	at,$f4
  103204:	84870004 	lh	a3,4(a0)
  103208:	03a0202d 	move	a0,sp
  10320c:	00000000 	nop
  103210:	c4a00000 	lwc1	$f0,0(a1)
  103214:	254a0002 	addiu	t2,t2,2
  103218:	8d630030 	lw	v1,48(t3)
  10321c:	014d302a 	slt	a2,t2,t5
  103220:	46020002 	mul.s	$f0,$f0,$f2
  103224:	24a50004 	addiu	a1,a1,4
  103228:	460001a4 	cvt.w.s	$f6,$f0
  10322c:	44023000 	mfc1	v0,$f6
  103230:	00000000 	nop
  103234:	00431021 	addu	v0,v0,v1
  103238:	10e90073 	beq	a3,t1,103408 <gsKit_prim_triangle_fan+0x260>
  10323c:	ac820000 	sw	v0,0(a0)
  103240:	c4a00000 	lwc1	$f0,0(a1)
  103244:	24a50004 	addiu	a1,a1,4
  103248:	8d630030 	lw	v1,48(t3)
  10324c:	46020002 	mul.s	$f0,$f0,$f2
  103250:	460001a4 	cvt.w.s	$f6,$f0
  103254:	44023000 	mfc1	v0,$f6
  103258:	00000000 	nop
  10325c:	00431021 	addu	v0,v0,v1
  103260:	ac820004 	sw	v0,4(a0)
  103264:	14c0ffea 	bnez	a2,103210 <gsKit_prim_triangle_fan+0x68>
  103268:	24840008 	addiu	a0,a0,8
  10326c:	8d6c0050 	lw	t4,80(t3)
  103270:	3402fffe 	li	v0,0xfffe
  103274:	00087100 	sll	t6,t0,0x4
  103278:	8d840024 	lw	a0,36(t4)
  10327c:	00881821 	addu	v1,a0,t0
  103280:	0043102b 	sltu	v0,v0,v1
  103284:	1040000c 	beqz	v0,1032b8 <gsKit_prim_triangle_fan+0x110>
  103288:	2409000e 	li	t1,14
  10328c:	3c021000 	lui	v0,0x1000
  103290:	8d850008 	lw	a1,8(t4)
  103294:	00821025 	or	v0,a0,v0
  103298:	ad800024 	sw	zero,36(t4)
  10329c:	8d840020 	lw	a0,32(t4)
  1032a0:	0002103c 	dsll32	v0,v0,0x0
  1032a4:	24a30010 	addiu	v1,a1,16
  1032a8:	0002103e 	dsrl32	v0,v0,0x0
  1032ac:	ad830008 	sw	v1,8(t4)
  1032b0:	fc820000 	sd	v0,0(a0)
  1032b4:	ad850020 	sw	a1,32(t4)
  1032b8:	8d830014 	lw	v1,20(t4)
  1032bc:	2402000b 	li	v0,11
  1032c0:	50620009 	beql	v1,v0,1032e8 <gsKit_prim_triangle_fan+0x140>
  1032c4:	8d660050 	lw	a2,80(t3)
  1032c8:	50690007 	beql	v1,t1,1032e8 <gsKit_prim_triangle_fan+0x140>
  1032cc:	8d660050 	lw	a2,80(t3)
  1032d0:	8d820018 	lw	v0,24(t4)
  1032d4:	8d83001c 	lw	v1,28(t4)
  1032d8:	dc440000 	ld	a0,0(v0)
  1032dc:	00641825 	or	v1,v1,a0
  1032e0:	fc430000 	sd	v1,0(v0)
  1032e4:	8d660050 	lw	a2,80(t3)
  1032e8:	25050001 	addiu	a1,t0,1
  1032ec:	ad80001c 	sw	zero,28(t4)
  1032f0:	35048000 	ori	a0,t0,0x8000
  1032f4:	8cc20024 	lw	v0,36(a2)
  1032f8:	34078000 	li	a3,0x8000
  1032fc:	00073b7c 	dsll32	a3,a3,0xd
  103300:	8cc3001c 	lw	v1,28(a2)
  103304:	00873825 	or	a3,a0,a3
  103308:	00451021 	addu	v0,v0,a1
  10330c:	acc90014 	sw	t1,20(a2)
  103310:	24630001 	addiu	v1,v1,1
  103314:	acc20024 	sw	v0,36(a2)
  103318:	acc3001c 	sw	v1,28(a2)
  10331c:	25ce0010 	addiu	t6,t6,16
  103320:	8cc80008 	lw	t0,8(a2)
  103324:	0000502d 	move	t2,zero
  103328:	8d640090 	lw	a0,144(t3)
  10332c:	8d620098 	lw	v0,152(t3)
  103330:	25090008 	addiu	t1,t0,8
  103334:	8d630094 	lw	v1,148(t3)
  103338:	00042178 	dsll	a0,a0,0x5
  10333c:	000211b8 	dsll	v0,v0,0x6
  103340:	8d65008c 	lw	a1,140(t3)
  103344:	00822025 	or	a0,a0,v0
  103348:	000319f8 	dsll	v1,v1,0x7
  10334c:	00832025 	or	a0,a0,v1
  103350:	00052a78 	dsll	a1,a1,0x9
  103354:	24020005 	li	v0,5
  103358:	2403000e 	li	v1,14
  10335c:	00852025 	or	a0,a0,a1
  103360:	fd070000 	sd	a3,0(t0)
  103364:	00822025 	or	a0,a0,v0
  103368:	fd230000 	sd	v1,0(t1)
  10336c:	25290008 	addiu	t1,t1,8
  103370:	8d830008 	lw	v1,8(t4)
  103374:	fd240000 	sd	a0,0(t1)
  103378:	010e4021 	addu	t0,t0,t6
  10337c:	25290008 	addiu	t1,t1,8
  103380:	24020001 	li	v0,1
  103384:	fd200000 	sd	zero,0(t1)
  103388:	25290008 	addiu	t1,t1,8
  10338c:	fd2f0000 	sd	t7,0(t1)
  103390:	25290008 	addiu	t1,t1,8
  103394:	fd220000 	sd	v0,0(t1)
  103398:	25290008 	addiu	t1,t1,8
  10339c:	acc80008 	sw	t0,8(a2)
  1033a0:	19a00012 	blez	t5,1033ec <gsKit_prim_triangle_fan+0x244>
  1033a4:	ad830018 	sw	v1,24(t4)
  1033a8:	0019383c 	dsll32	a3,t9,0x0
  1033ac:	0300282d 	move	a1,t8
  1033b0:	24060005 	li	a2,5
  1033b4:	00000000 	nop
  1033b8:	8ca20004 	lw	v0,4(a1)
  1033bc:	254a0002 	addiu	t2,t2,2
  1033c0:	8ca30000 	lw	v1,0(a1)
  1033c4:	014d202a 	slt	a0,t2,t5
  1033c8:	00021438 	dsll	v0,v0,0x10
  1033cc:	24a50008 	addiu	a1,a1,8
  1033d0:	00621825 	or	v1,v1,v0
  1033d4:	00671825 	or	v1,v1,a3
  1033d8:	fd230000 	sd	v1,0(t1)
  1033dc:	25290008 	addiu	t1,t1,8
  1033e0:	fd260000 	sd	a2,0(t1)
  1033e4:	1480fff4 	bnez	a0,1033b8 <gsKit_prim_triangle_fan+0x210>
  1033e8:	25290008 	addiu	t1,t1,8
  1033ec:	0200e82d 	move	sp,s0
  1033f0:	03c0e82d 	move	sp,s8
  1033f4:	dfbe0030 	ld	s8,48(sp)
  1033f8:	dfb00020 	ld	s0,32(sp)
  1033fc:	03e00008 	jr	ra
  103400:	27bd0040 	addiu	sp,sp,64
  103404:	00000000 	nop
  103408:	c4a00000 	lwc1	$f0,0(a1)
  10340c:	46040002 	mul.s	$f0,$f0,$f4
  103410:	1000ff8b 	b	103240 <gsKit_prim_triangle_fan+0x98>
  103414:	e4a00000 	swc1	$f0,0(a1)

00103418 <gsKit_prim_triangle_fan_3d>:
  103418:	2402000c 	li	v0,12
  10341c:	27bdffc0 	addiu	sp,sp,-64
  103420:	00c21018 	mult	v0,a2,v0
  103424:	00067840 	sll	t7,a2,0x1
  103428:	ffbe0030 	sd	s8,48(sp)
  10342c:	01e61821 	addu	v1,t7,a2
  103430:	ffb00020 	sd	s0,32(sp)
  103434:	03a0f02d 	move	s8,sp
  103438:	03a0802d 	move	s0,sp
  10343c:	00c0702d 	move	t6,a2
  103440:	2442000f 	addiu	v0,v0,15
  103444:	0080502d 	move	t2,a0
  103448:	00021102 	srl	v0,v0,0x4
  10344c:	00e0c02d 	move	t8,a3
  103450:	00021100 	sll	v0,v0,0x4
  103454:	24cc0002 	addiu	t4,a2,2
  103458:	03a2e823 	subu	sp,sp,v0
  10345c:	0000402d 	move	t0,zero
  103460:	18600024 	blez	v1,1034f4 <gsKit_prim_triangle_fan_3d+0xdc>
  103464:	03a0c82d 	move	t9,sp
  103468:	3c014180 	lui	at,0x4180
  10346c:	44811000 	mtc1	at,$f2
  103470:	0060482d 	move	t1,v1
  103474:	3c013f00 	lui	at,0x3f00
  103478:	44812000 	mtc1	at,$f4
  10347c:	240b0001 	li	t3,1
  103480:	84870004 	lh	a3,4(a0)
  103484:	03a0202d 	move	a0,sp
  103488:	c4a00000 	lwc1	$f0,0(a1)
  10348c:	25080003 	addiu	t0,t0,3
  103490:	8d430030 	lw	v1,48(t2)
  103494:	0109302a 	slt	a2,t0,t1
  103498:	46020002 	mul.s	$f0,$f0,$f2
  10349c:	24a50004 	addiu	a1,a1,4
  1034a0:	460001a4 	cvt.w.s	$f6,$f0
  1034a4:	44023000 	mfc1	v0,$f6
  1034a8:	00000000 	nop
  1034ac:	00431021 	addu	v0,v0,v1
  1034b0:	10eb0079 	beq	a3,t3,103698 <gsKit_prim_triangle_fan_3d+0x280>
  1034b4:	ac820000 	sw	v0,0(a0)
  1034b8:	c4a00000 	lwc1	$f0,0(a1)
  1034bc:	24a50004 	addiu	a1,a1,4
  1034c0:	8d430030 	lw	v1,48(t2)
  1034c4:	46020002 	mul.s	$f0,$f0,$f2
  1034c8:	460001a4 	cvt.w.s	$f6,$f0
  1034cc:	44023000 	mfc1	v0,$f6
  1034d0:	c4a00000 	lwc1	$f0,0(a1)
  1034d4:	24a50004 	addiu	a1,a1,4
  1034d8:	46020002 	mul.s	$f0,$f0,$f2
  1034dc:	00431021 	addu	v0,v0,v1
  1034e0:	ac820004 	sw	v0,4(a0)
  1034e4:	460001a4 	cvt.w.s	$f6,$f0
  1034e8:	e4860008 	swc1	$f6,8(a0)
  1034ec:	14c0ffe6 	bnez	a2,103488 <gsKit_prim_triangle_fan_3d+0x70>
  1034f0:	2484000c 	addiu	a0,a0,12
  1034f4:	8d4b0050 	lw	t3,80(t2)
  1034f8:	3402fffe 	li	v0,0xfffe
  1034fc:	000c6900 	sll	t5,t4,0x4
  103500:	8d640024 	lw	a0,36(t3)
  103504:	008c1821 	addu	v1,a0,t4
  103508:	0043102b 	sltu	v0,v0,v1
  10350c:	1040000c 	beqz	v0,103540 <gsKit_prim_triangle_fan_3d+0x128>
  103510:	2407000e 	li	a3,14
  103514:	3c021000 	lui	v0,0x1000
  103518:	8d650008 	lw	a1,8(t3)
  10351c:	00821025 	or	v0,a0,v0
  103520:	ad600024 	sw	zero,36(t3)
  103524:	8d640020 	lw	a0,32(t3)
  103528:	0002103c 	dsll32	v0,v0,0x0
  10352c:	24a30010 	addiu	v1,a1,16
  103530:	0002103e 	dsrl32	v0,v0,0x0
  103534:	ad630008 	sw	v1,8(t3)
  103538:	fc820000 	sd	v0,0(a0)
  10353c:	ad650020 	sw	a1,32(t3)
  103540:	8d630014 	lw	v1,20(t3)
  103544:	2402000b 	li	v0,11
  103548:	50620009 	beql	v1,v0,103570 <gsKit_prim_triangle_fan_3d+0x158>
  10354c:	8d460050 	lw	a2,80(t2)
  103550:	50670007 	beql	v1,a3,103570 <gsKit_prim_triangle_fan_3d+0x158>
  103554:	8d460050 	lw	a2,80(t2)
  103558:	8d620018 	lw	v0,24(t3)
  10355c:	8d63001c 	lw	v1,28(t3)
  103560:	dc440000 	ld	a0,0(v0)
  103564:	00641825 	or	v1,v1,a0
  103568:	fc430000 	sd	v1,0(v0)
  10356c:	8d460050 	lw	a2,80(t2)
  103570:	25850001 	addiu	a1,t4,1
  103574:	ad60001c 	sw	zero,28(t3)
  103578:	35848000 	ori	a0,t4,0x8000
  10357c:	8cc20024 	lw	v0,36(a2)
  103580:	34088000 	li	t0,0x8000
  103584:	0008437c 	dsll32	t0,t0,0xd
  103588:	8cc3001c 	lw	v1,28(a2)
  10358c:	00884025 	or	t0,a0,t0
  103590:	00451021 	addu	v0,v0,a1
  103594:	acc70014 	sw	a3,20(a2)
  103598:	24630001 	addiu	v1,v1,1
  10359c:	acc20024 	sw	v0,36(a2)
  1035a0:	acc3001c 	sw	v1,28(a2)
  1035a4:	25ad0010 	addiu	t5,t5,16
  1035a8:	8cc70008 	lw	a3,8(a2)
  1035ac:	01ee6021 	addu	t4,t7,t6
  1035b0:	8d440090 	lw	a0,144(t2)
  1035b4:	8d420098 	lw	v0,152(t2)
  1035b8:	24e90008 	addiu	t1,a3,8
  1035bc:	8d430094 	lw	v1,148(t2)
  1035c0:	00042178 	dsll	a0,a0,0x5
  1035c4:	000211b8 	dsll	v0,v0,0x6
  1035c8:	8d45008c 	lw	a1,140(t2)
  1035cc:	00822025 	or	a0,a0,v0
  1035d0:	000319f8 	dsll	v1,v1,0x7
  1035d4:	00832025 	or	a0,a0,v1
  1035d8:	00052a78 	dsll	a1,a1,0x9
  1035dc:	24020005 	li	v0,5
  1035e0:	2403000e 	li	v1,14
  1035e4:	00852025 	or	a0,a0,a1
  1035e8:	fce80000 	sd	t0,0(a3)
  1035ec:	00822025 	or	a0,a0,v0
  1035f0:	fd230000 	sd	v1,0(t1)
  1035f4:	25290008 	addiu	t1,t1,8
  1035f8:	8d630008 	lw	v1,8(t3)
  1035fc:	fd240000 	sd	a0,0(t1)
  103600:	00ed3821 	addu	a3,a3,t5
  103604:	25290008 	addiu	t1,t1,8
  103608:	24020001 	li	v0,1
  10360c:	fd200000 	sd	zero,0(t1)
  103610:	0000402d 	move	t0,zero
  103614:	25290008 	addiu	t1,t1,8
  103618:	acc70008 	sw	a3,8(a2)
  10361c:	fd380000 	sd	t8,0(t1)
  103620:	25290008 	addiu	t1,t1,8
  103624:	fd220000 	sd	v0,0(t1)
  103628:	25290008 	addiu	t1,t1,8
  10362c:	19800013 	blez	t4,10367c <gsKit_prim_triangle_fan_3d+0x264>
  103630:	ad630018 	sw	v1,24(t3)
  103634:	0320302d 	move	a2,t9
  103638:	24070005 	li	a3,5
  10363c:	00000000 	nop
  103640:	8cc40004 	lw	a0,4(a2)
  103644:	25080003 	addiu	t0,t0,3
  103648:	8cc30000 	lw	v1,0(a2)
  10364c:	010c282a 	slt	a1,t0,t4
  103650:	8cc20008 	lw	v0,8(a2)
  103654:	00042438 	dsll	a0,a0,0x10
  103658:	00641825 	or	v1,v1,a0
  10365c:	24c6000c 	addiu	a2,a2,12
  103660:	0002103c 	dsll32	v0,v0,0x0
  103664:	00621825 	or	v1,v1,v0
  103668:	fd230000 	sd	v1,0(t1)
  10366c:	25290008 	addiu	t1,t1,8
  103670:	fd270000 	sd	a3,0(t1)
  103674:	14a0fff2 	bnez	a1,103640 <gsKit_prim_triangle_fan_3d+0x228>
  103678:	25290008 	addiu	t1,t1,8
  10367c:	0200e82d 	move	sp,s0
  103680:	03c0e82d 	move	sp,s8
  103684:	dfbe0030 	ld	s8,48(sp)
  103688:	dfb00020 	ld	s0,32(sp)
  10368c:	03e00008 	jr	ra
  103690:	27bd0040 	addiu	sp,sp,64
  103694:	00000000 	nop
  103698:	c4a00000 	lwc1	$f0,0(a1)
  10369c:	46040002 	mul.s	$f0,$f0,$f4
  1036a0:	1000ff85 	b	1034b8 <gsKit_prim_triangle_fan_3d+0xa0>
  1036a4:	e4a00000 	swc1	$f0,0(a1)

001036a8 <gsKit_prim_triangle_gouraud_3d>:
  1036a8:	27bdff80 	addiu	sp,sp,-128
  1036ac:	24020001 	li	v0,1
  1036b0:	ffb70070 	sd	s7,112(sp)
  1036b4:	0080682d 	move	t5,a0
  1036b8:	ffb60060 	sd	s6,96(sp)
  1036bc:	46006986 	mov.s	$f6,$f13
  1036c0:	ffb50050 	sd	s5,80(sp)
  1036c4:	46007886 	mov.s	$f2,$f15
  1036c8:	ffb40040 	sd	s4,64(sp)
  1036cc:	00c0a82d 	move	s5,a2
  1036d0:	ffb30030 	sd	s3,48(sp)
  1036d4:	46008a86 	mov.s	$f10,$f17
  1036d8:	ffb20020 	sd	s2,32(sp)
  1036dc:	00a0982d 	move	s3,a1
  1036e0:	ffb10010 	sd	s1,16(sp)
  1036e4:	00e0b02d 	move	s6,a3
  1036e8:	ffb00000 	sd	s0,0(sp)
  1036ec:	0100902d 	move	s2,t0
  1036f0:	0120a02d 	move	s4,t1
  1036f4:	84830004 	lh	v1,4(a0)
  1036f8:	10620093 	beq	v1,v0,103948 <gsKit_prim_triangle_gouraud_3d+0x2a0>
  1036fc:	0140b82d 	move	s7,t2
  103700:	3c014180 	lui	at,0x4180
  103704:	44810000 	mtc1	at,$f0
  103708:	3404fffe 	li	a0,0xfffe
  10370c:	8dac0050 	lw	t4,80(t5)
  103710:	240a0004 	li	t2,4
  103714:	46006202 	mul.s	$f8,$f12,$f0
  103718:	8da30030 	lw	v1,48(t5)
  10371c:	46003182 	mul.s	$f6,$f6,$f0
  103720:	8d8b0024 	lw	t3,36(t4)
  103724:	46007102 	mul.s	$f4,$f14,$f0
  103728:	240f0040 	li	t7,64
  10372c:	25620004 	addiu	v0,t3,4
  103730:	46001082 	mul.s	$f2,$f2,$f0
  103734:	46005282 	mul.s	$f10,$f10,$f0
  103738:	0082202b 	sltu	a0,a0,v0
  10373c:	46008002 	mul.s	$f0,$f16,$f0
  103740:	24181800 	li	t8,6144
  103744:	46004324 	cvt.w.s	$f12,$f8
  103748:	44026000 	mfc1	v0,$f12
  10374c:	46003224 	cvt.w.s	$f8,$f6
  103750:	44054000 	mfc1	a1,$f8
  103754:	460021a4 	cvt.w.s	$f6,$f4
  103758:	44073000 	mfc1	a3,$f6
  10375c:	0043c821 	addu	t9,v0,v1
  103760:	46001124 	cvt.w.s	$f4,$f2
  103764:	44082000 	mfc1	t0,$f4
  103768:	00a37021 	addu	t6,a1,v1
  10376c:	460000a4 	cvt.w.s	$f2,$f0
  103770:	44061000 	mfc1	a2,$f2
  103774:	46005024 	cvt.w.s	$f0,$f10
  103778:	44020000 	mfc1	v0,$f0
  10377c:	00e38021 	addu	s0,a3,v1
  103780:	01034021 	addu	t0,t0,v1
  103784:	00c38821 	addu	s1,a2,v1
  103788:	1080000c 	beqz	a0,1037bc <gsKit_prim_triangle_gouraud_3d+0x114>
  10378c:	00434821 	addu	t1,v0,v1
  103790:	3c021000 	lui	v0,0x1000
  103794:	8d850008 	lw	a1,8(t4)
  103798:	01621025 	or	v0,t3,v0
  10379c:	8d840020 	lw	a0,32(t4)
  1037a0:	0002103c 	dsll32	v0,v0,0x0
  1037a4:	24a30010 	addiu	v1,a1,16
  1037a8:	0002103e 	dsrl32	v0,v0,0x0
  1037ac:	ad830008 	sw	v1,8(t4)
  1037b0:	fc820000 	sd	v0,0(a0)
  1037b4:	ad800024 	sw	zero,36(t4)
  1037b8:	ad850020 	sw	a1,32(t4)
  1037bc:	8d830014 	lw	v1,20(t4)
  1037c0:	1078005b 	beq	v1,t8,103930 <gsKit_prim_triangle_gouraud_3d+0x288>
  1037c4:	2402000b 	li	v0,11
  1037c8:	10620008 	beq	v1,v0,1037ec <gsKit_prim_triangle_gouraud_3d+0x144>
  1037cc:	2402000e 	li	v0,14
  1037d0:	50620007 	beql	v1,v0,1037f0 <gsKit_prim_triangle_gouraud_3d+0x148>
  1037d4:	8d820008 	lw	v0,8(t4)
  1037d8:	8d820018 	lw	v0,24(t4)
  1037dc:	8d83001c 	lw	v1,28(t4)
  1037e0:	dc440000 	ld	a0,0(v0)
  1037e4:	00641825 	or	v1,v1,a0
  1037e8:	fc430000 	sd	v1,0(v0)
  1037ec:	8d820008 	lw	v0,8(t4)
  1037f0:	240a0005 	li	t2,5
  1037f4:	ad80001c 	sw	zero,28(t4)
  1037f8:	240f0050 	li	t7,80
  1037fc:	ad820018 	sw	v0,24(t4)
  103800:	8da50050 	lw	a1,80(t5)
  103804:	8d840008 	lw	a0,8(t4)
  103808:	8d82001c 	lw	v0,28(t4)
  10380c:	8d830024 	lw	v1,36(t4)
  103810:	008f3021 	addu	a2,a0,t7
  103814:	8ca70018 	lw	a3,24(a1)
  103818:	24420001 	addiu	v0,v0,1
  10381c:	006a1821 	addu	v1,v1,t2
  103820:	0080582d 	move	t3,a0
  103824:	ad860008 	sw	a2,8(t4)
  103828:	ad82001c 	sw	v0,28(t4)
  10382c:	ad980014 	sw	t8,20(t4)
  103830:	10870033 	beq	a0,a3,103900 <gsKit_prim_triangle_gouraud_3d+0x258>
  103834:	ad830024 	sw	v1,36(t4)
  103838:	8da20090 	lw	v0,144(t5)
  10383c:	01c0302d 	move	a2,t6
  103840:	8da30098 	lw	v1,152(t5)
  103844:	00063438 	dsll	a2,a2,0x10
  103848:	8da50094 	lw	a1,148(t5)
  10384c:	00021178 	dsll	v0,v0,0x5
  103850:	000319b8 	dsll	v1,v1,0x6
  103854:	8da4008c 	lw	a0,140(t5)
  103858:	00431025 	or	v0,v0,v1
  10385c:	000529f8 	dsll	a1,a1,0x7
  103860:	00451025 	or	v0,v0,a1
  103864:	00042278 	dsll	a0,a0,0x9
  103868:	00441025 	or	v0,v0,a0
  10386c:	2403000b 	li	v1,11
  103870:	00431025 	or	v0,v0,v1
  103874:	0013203c 	dsll32	a0,s3,0x0
  103878:	fd620000 	sd	v0,0(t3)
  10387c:	03263025 	or	a2,t9,a2
  103880:	0100182d 	move	v1,t0
  103884:	256b0008 	addiu	t3,t3,8
  103888:	fd720000 	sd	s2,0(t3)
  10388c:	00c43025 	or	a2,a2,a0
  103890:	256b0008 	addiu	t3,t3,8
  103894:	00031c38 	dsll	v1,v1,0x10
  103898:	fd660000 	sd	a2,0(t3)
  10389c:	0015203c 	dsll32	a0,s5,0x0
  1038a0:	02031825 	or	v1,s0,v1
  1038a4:	256b0008 	addiu	t3,t3,8
  1038a8:	fd740000 	sd	s4,0(t3)
  1038ac:	00641825 	or	v1,v1,a0
  1038b0:	0120102d 	move	v0,t1
  1038b4:	256b0008 	addiu	t3,t3,8
  1038b8:	fd630000 	sd	v1,0(t3)
  1038bc:	00021438 	dsll	v0,v0,0x10
  1038c0:	256b0008 	addiu	t3,t3,8
  1038c4:	0016203c 	dsll32	a0,s6,0x0
  1038c8:	02221025 	or	v0,s1,v0
  1038cc:	fd770000 	sd	s7,0(t3)
  1038d0:	dfb60060 	ld	s6,96(sp)
  1038d4:	00441025 	or	v0,v0,a0
  1038d8:	dfb70070 	ld	s7,112(sp)
  1038dc:	dfb50050 	ld	s5,80(sp)
  1038e0:	dfb40040 	ld	s4,64(sp)
  1038e4:	dfb30030 	ld	s3,48(sp)
  1038e8:	dfb20020 	ld	s2,32(sp)
  1038ec:	dfb10010 	ld	s1,16(sp)
  1038f0:	dfb00000 	ld	s0,0(sp)
  1038f4:	fd620008 	sd	v0,8(t3)
  1038f8:	03e00008 	jr	ra
  1038fc:	27bd0080 	addiu	sp,sp,128
  103900:	3c028400 	lui	v0,0x8400
  103904:	0002103c 	dsll32	v0,v0,0x0
  103908:	34428000 	ori	v0,v0,0x8000
  10390c:	248b0008 	addiu	t3,a0,8
  103910:	fc820000 	sd	v0,0(a0)
  103914:	3402f515 	li	v0,0xf515
  103918:	00021438 	dsll	v0,v0,0x10
  10391c:	34421510 	ori	v0,v0,0x1510
  103920:	fd620000 	sd	v0,0(t3)
  103924:	1000ffc4 	b	103838 <gsKit_prim_triangle_gouraud_3d+0x190>
  103928:	256b0008 	addiu	t3,t3,8
  10392c:	00000000 	nop
  103930:	8d82001c 	lw	v0,28(t4)
  103934:	28427fff 	slti	v0,v0,32767
  103938:	5440ffb2 	bnezl	v0,103804 <gsKit_prim_triangle_gouraud_3d+0x15c>
  10393c:	8da50050 	lw	a1,80(t5)
  103940:	1000ffa1 	b	1037c8 <gsKit_prim_triangle_gouraud_3d+0x120>
  103944:	2402000b 	li	v0,11
  103948:	3c013f00 	lui	at,0x3f00
  10394c:	44810000 	mtc1	at,$f0
  103950:	00000000 	nop
  103954:	46008a82 	mul.s	$f10,$f17,$f0
  103958:	46006982 	mul.s	$f6,$f13,$f0
  10395c:	1000ff68 	b	103700 <gsKit_prim_triangle_gouraud_3d+0x58>
  103960:	46007882 	mul.s	$f2,$f15,$f0
  103964:	00000000 	nop

00103968 <gsKit_prim_quad_3d>:
  103968:	27bdff70 	addiu	sp,sp,-144
  10396c:	24020001 	li	v0,1
  103970:	ffbe0080 	sd	s8,128(sp)
  103974:	46007206 	mov.s	$f8,$f14
  103978:	ffb70070 	sd	s7,112(sp)
  10397c:	0080602d 	move	t4,a0
  103980:	ffb60060 	sd	s6,96(sp)
  103984:	46006a86 	mov.s	$f10,$f13
  103988:	ffb50050 	sd	s5,80(sp)
  10398c:	46007986 	mov.s	$f6,$f15
  103990:	ffb40040 	sd	s4,64(sp)
  103994:	00a0a82d 	move	s5,a1
  103998:	ffb30030 	sd	s3,48(sp)
  10399c:	00c0b02d 	move	s6,a2
  1039a0:	ffb20020 	sd	s2,32(sp)
  1039a4:	46008906 	mov.s	$f4,$f17
  1039a8:	ffb10010 	sd	s1,16(sp)
  1039ac:	00e0f02d 	move	s8,a3
  1039b0:	ffb00000 	sd	s0,0(sp)
  1039b4:	46009b86 	mov.s	$f14,$f19
  1039b8:	0100b82d 	move	s7,t0
  1039bc:	84830004 	lh	v1,4(a0)
  1039c0:	1062009d 	beq	v1,v0,103c38 <gsKit_prim_quad_3d+0x2d0>
  1039c4:	0120a02d 	move	s4,t1
  1039c8:	3c014180 	lui	at,0x4180
  1039cc:	44810000 	mtc1	at,$f0
  1039d0:	3405fffe 	li	a1,0xfffe
  1039d4:	8d8b0050 	lw	t3,80(t4)
  1039d8:	24120003 	li	s2,3
  1039dc:	46006302 	mul.s	$f12,$f12,$f0
  1039e0:	8d820030 	lw	v0,48(t4)
  1039e4:	46005282 	mul.s	$f10,$f10,$f0
  1039e8:	8d6a0024 	lw	t2,36(t3)
  1039ec:	46004202 	mul.s	$f8,$f8,$f0
  1039f0:	240e0030 	li	t6,48
  1039f4:	25430003 	addiu	v1,t2,3
  1039f8:	46008082 	mul.s	$f2,$f16,$f0
  1039fc:	46003182 	mul.s	$f6,$f6,$f0
  103a00:	00a3282b 	sltu	a1,a1,v1
  103a04:	46007382 	mul.s	$f14,$f14,$f0
  103a08:	24101700 	li	s0,5888
  103a0c:	46006424 	cvt.w.s	$f16,$f12
  103a10:	44038000 	mfc1	v1,$f16
  103a14:	46002102 	mul.s	$f4,$f4,$f0
  103a18:	46005324 	cvt.w.s	$f12,$f10
  103a1c:	44046000 	mfc1	a0,$f12
  103a20:	46009002 	mul.s	$f0,$f18,$f0
  103a24:	0062c821 	addu	t9,v1,v0
  103a28:	460042a4 	cvt.w.s	$f10,$f8
  103a2c:	44065000 	mfc1	a2,$f10
  103a30:	00826821 	addu	t5,a0,v0
  103a34:	46003224 	cvt.w.s	$f8,$f6
  103a38:	44084000 	mfc1	t0,$f8
  103a3c:	460011a4 	cvt.w.s	$f6,$f2
  103a40:	44093000 	mfc1	t1,$f6
  103a44:	00c28821 	addu	s1,a2,v0
  103a48:	460020a4 	cvt.w.s	$f2,$f4
  103a4c:	44071000 	mfc1	a3,$f2
  103a50:	460000a4 	cvt.w.s	$f2,$f0
  103a54:	44041000 	mfc1	a0,$f2
  103a58:	01024021 	addu	t0,t0,v0
  103a5c:	46007024 	cvt.w.s	$f0,$f14
  103a60:	44030000 	mfc1	v1,$f0
  103a64:	01229821 	addu	s3,t1,v0
  103a68:	00e2c021 	addu	t8,a3,v0
  103a6c:	00824821 	addu	t1,a0,v0
  103a70:	10a0000c 	beqz	a1,103aa4 <gsKit_prim_quad_3d+0x13c>
  103a74:	00627821 	addu	t7,v1,v0
  103a78:	3c021000 	lui	v0,0x1000
  103a7c:	8d650008 	lw	a1,8(t3)
  103a80:	01421025 	or	v0,t2,v0
  103a84:	8d640020 	lw	a0,32(t3)
  103a88:	0002103c 	dsll32	v0,v0,0x0
  103a8c:	24a30010 	addiu	v1,a1,16
  103a90:	0002103e 	dsrl32	v0,v0,0x0
  103a94:	ad630008 	sw	v1,8(t3)
  103a98:	fc820000 	sd	v0,0(a0)
  103a9c:	ad600024 	sw	zero,36(t3)
  103aa0:	ad650020 	sw	a1,32(t3)
  103aa4:	8d630014 	lw	v1,20(t3)
  103aa8:	1070005d 	beq	v1,s0,103c20 <gsKit_prim_quad_3d+0x2b8>
  103aac:	2402000b 	li	v0,11
  103ab0:	10620008 	beq	v1,v0,103ad4 <gsKit_prim_quad_3d+0x16c>
  103ab4:	2402000e 	li	v0,14
  103ab8:	50620007 	beql	v1,v0,103ad8 <gsKit_prim_quad_3d+0x170>
  103abc:	8d620008 	lw	v0,8(t3)
  103ac0:	8d620018 	lw	v0,24(t3)
  103ac4:	8d63001c 	lw	v1,28(t3)
  103ac8:	dc440000 	ld	a0,0(v0)
  103acc:	00641825 	or	v1,v1,a0
  103ad0:	fc430000 	sd	v1,0(v0)
  103ad4:	8d620008 	lw	v0,8(t3)
  103ad8:	24120004 	li	s2,4
  103adc:	ad60001c 	sw	zero,28(t3)
  103ae0:	240e0040 	li	t6,64
  103ae4:	ad620018 	sw	v0,24(t3)
  103ae8:	8d850050 	lw	a1,80(t4)
  103aec:	8d640008 	lw	a0,8(t3)
  103af0:	8d62001c 	lw	v0,28(t3)
  103af4:	8d630024 	lw	v1,36(t3)
  103af8:	008e3021 	addu	a2,a0,t6
  103afc:	8ca70018 	lw	a3,24(a1)
  103b00:	24420001 	addiu	v0,v0,1
  103b04:	00721821 	addu	v1,v1,s2
  103b08:	0080502d 	move	t2,a0
  103b0c:	ad660008 	sw	a2,8(t3)
  103b10:	ad62001c 	sw	v0,28(t3)
  103b14:	ad700014 	sw	s0,20(t3)
  103b18:	10870037 	beq	a0,a3,103bf8 <gsKit_prim_quad_3d+0x290>
  103b1c:	ad630024 	sw	v1,36(t3)
  103b20:	8d820090 	lw	v0,144(t4)
  103b24:	01a0302d 	move	a2,t5
  103b28:	8d830098 	lw	v1,152(t4)
  103b2c:	00063438 	dsll	a2,a2,0x10
  103b30:	8d850094 	lw	a1,148(t4)
  103b34:	00021178 	dsll	v0,v0,0x5
  103b38:	000319b8 	dsll	v1,v1,0x6
  103b3c:	8d84008c 	lw	a0,140(t4)
  103b40:	00431025 	or	v0,v0,v1
  103b44:	000529f8 	dsll	a1,a1,0x7
  103b48:	00451025 	or	v0,v0,a1
  103b4c:	00042278 	dsll	a0,a0,0x9
  103b50:	00441025 	or	v0,v0,a0
  103b54:	24030004 	li	v1,4
  103b58:	00431025 	or	v0,v0,v1
  103b5c:	0100202d 	move	a0,t0
  103b60:	fd420000 	sd	v0,0(t2)
  103b64:	0015283c 	dsll32	a1,s5,0x0
  103b68:	03263025 	or	a2,t9,a2
  103b6c:	0300182d 	move	v1,t8
  103b70:	01e0102d 	move	v0,t7
  103b74:	254a0008 	addiu	t2,t2,8
  103b78:	00042438 	dsll	a0,a0,0x10
  103b7c:	fd540000 	sd	s4,0(t2)
  103b80:	00c53025 	or	a2,a2,a1
  103b84:	02242025 	or	a0,s1,a0
  103b88:	0016283c 	dsll32	a1,s6,0x0
  103b8c:	254a0008 	addiu	t2,t2,8
  103b90:	00031c38 	dsll	v1,v1,0x10
  103b94:	00021438 	dsll	v0,v0,0x10
  103b98:	fd460000 	sd	a2,0(t2)
  103b9c:	00852025 	or	a0,a0,a1
  103ba0:	0017303c 	dsll32	a2,s7,0x0
  103ba4:	02631825 	or	v1,s3,v1
  103ba8:	001e283c 	dsll32	a1,s8,0x0
  103bac:	01221025 	or	v0,t1,v0
  103bb0:	254a0008 	addiu	t2,t2,8
  103bb4:	dfbe0080 	ld	s8,128(sp)
  103bb8:	dfb70070 	ld	s7,112(sp)
  103bbc:	00651825 	or	v1,v1,a1
  103bc0:	dfb60060 	ld	s6,96(sp)
  103bc4:	00461025 	or	v0,v0,a2
  103bc8:	dfb50050 	ld	s5,80(sp)
  103bcc:	dfb40040 	ld	s4,64(sp)
  103bd0:	dfb30030 	ld	s3,48(sp)
  103bd4:	dfb20020 	ld	s2,32(sp)
  103bd8:	dfb10010 	ld	s1,16(sp)
  103bdc:	dfb00000 	ld	s0,0(sp)
  103be0:	fd440000 	sd	a0,0(t2)
  103be4:	254a0008 	addiu	t2,t2,8
  103be8:	fd420008 	sd	v0,8(t2)
  103bec:	fd430000 	sd	v1,0(t2)
  103bf0:	03e00008 	jr	ra
  103bf4:	27bd0090 	addiu	sp,sp,144
  103bf8:	3c026400 	lui	v0,0x6400
  103bfc:	0002103c 	dsll32	v0,v0,0x0
  103c00:	34428000 	ori	v0,v0,0x8000
  103c04:	248a0008 	addiu	t2,a0,8
  103c08:	fc820000 	sd	v0,0(a0)
  103c0c:	3c020055 	lui	v0,0x55
  103c10:	34425510 	ori	v0,v0,0x5510
  103c14:	fd420000 	sd	v0,0(t2)
  103c18:	1000ffc1 	b	103b20 <gsKit_prim_quad_3d+0x1b8>
  103c1c:	254a0008 	addiu	t2,t2,8
  103c20:	8d62001c 	lw	v0,28(t3)
  103c24:	28427fff 	slti	v0,v0,32767
  103c28:	5440ffb0 	bnezl	v0,103aec <gsKit_prim_quad_3d+0x184>
  103c2c:	8d850050 	lw	a1,80(t4)
  103c30:	1000ff9f 	b	103ab0 <gsKit_prim_quad_3d+0x148>
  103c34:	2402000b 	li	v0,11
  103c38:	3c013f00 	lui	at,0x3f00
  103c3c:	44810000 	mtc1	at,$f0
  103c40:	00000000 	nop
  103c44:	46009b82 	mul.s	$f14,$f19,$f0
  103c48:	46006a82 	mul.s	$f10,$f13,$f0
  103c4c:	46007982 	mul.s	$f6,$f15,$f0
  103c50:	1000ff5d 	b	1039c8 <gsKit_prim_quad_3d+0x60>
  103c54:	46008902 	mul.s	$f4,$f17,$f0

00103c58 <gsKit_prim_quad_gouraud_3d>:
  103c58:	27bdff50 	addiu	sp,sp,-176
  103c5c:	24020001 	li	v0,1
  103c60:	ffbe00a0 	sd	s8,160(sp)
  103c64:	46007206 	mov.s	$f8,$f14
  103c68:	ffb70090 	sd	s7,144(sp)
  103c6c:	0080702d 	move	t6,a0
  103c70:	ffb60080 	sd	s6,128(sp)
  103c74:	46006a86 	mov.s	$f10,$f13
  103c78:	ffb50070 	sd	s5,112(sp)
  103c7c:	46007986 	mov.s	$f6,$f15
  103c80:	ffb40060 	sd	s4,96(sp)
  103c84:	00a0a82d 	move	s5,a1
  103c88:	ffb30050 	sd	s3,80(sp)
  103c8c:	00c0b82d 	move	s7,a2
  103c90:	ffb20040 	sd	s2,64(sp)
  103c94:	46008906 	mov.s	$f4,$f17
  103c98:	ffb10030 	sd	s1,48(sp)
  103c9c:	46009b86 	mov.s	$f14,$f19
  103ca0:	ffb00020 	sd	s0,32(sp)
  103ca4:	0120a02d 	move	s4,t1
  103ca8:	afa70000 	sw	a3,0(sp)
  103cac:	0140b02d 	move	s6,t2
  103cb0:	84830004 	lh	v1,4(a0)
  103cb4:	0160f02d 	move	s8,t3
  103cb8:	106200ab 	beq	v1,v0,103f68 <gsKit_prim_quad_gouraud_3d+0x310>
  103cbc:	afa80010 	sw	t0,16(sp)
  103cc0:	3c014180 	lui	at,0x4180
  103cc4:	44810000 	mtc1	at,$f0
  103cc8:	3405fffe 	li	a1,0xfffe
  103ccc:	8dcd0050 	lw	t5,80(t6)
  103cd0:	24110005 	li	s1,5
  103cd4:	46006302 	mul.s	$f12,$f12,$f0
  103cd8:	8dc20030 	lw	v0,48(t6)
  103cdc:	46005282 	mul.s	$f10,$f10,$f0
  103ce0:	8dac0024 	lw	t4,36(t5)
  103ce4:	46004202 	mul.s	$f8,$f8,$f0
  103ce8:	24180050 	li	t8,80
  103cec:	25830005 	addiu	v1,t4,5
  103cf0:	46008082 	mul.s	$f2,$f16,$f0
  103cf4:	46003182 	mul.s	$f6,$f6,$f0
  103cf8:	00a3282b 	sltu	a1,a1,v1
  103cfc:	46007382 	mul.s	$f14,$f14,$f0
  103d00:	240a1900 	li	t2,6400
  103d04:	46006424 	cvt.w.s	$f16,$f12
  103d08:	44038000 	mfc1	v1,$f16
  103d0c:	46002102 	mul.s	$f4,$f4,$f0
  103d10:	46005324 	cvt.w.s	$f12,$f10
  103d14:	44046000 	mfc1	a0,$f12
  103d18:	46009002 	mul.s	$f0,$f18,$f0
  103d1c:	0062c821 	addu	t9,v1,v0
  103d20:	460042a4 	cvt.w.s	$f10,$f8
  103d24:	44065000 	mfc1	a2,$f10
  103d28:	00827821 	addu	t7,a0,v0
  103d2c:	46003224 	cvt.w.s	$f8,$f6
  103d30:	44084000 	mfc1	t0,$f8
  103d34:	460011a4 	cvt.w.s	$f6,$f2
  103d38:	44093000 	mfc1	t1,$f6
  103d3c:	00c25821 	addu	t3,a2,v0
  103d40:	460020a4 	cvt.w.s	$f2,$f4
  103d44:	44071000 	mfc1	a3,$f2
  103d48:	460000a4 	cvt.w.s	$f2,$f0
  103d4c:	44041000 	mfc1	a0,$f2
  103d50:	01024021 	addu	t0,t0,v0
  103d54:	46007024 	cvt.w.s	$f0,$f14
  103d58:	44030000 	mfc1	v1,$f0
  103d5c:	01229021 	addu	s2,t1,v0
  103d60:	00e24821 	addu	t1,a3,v0
  103d64:	00829821 	addu	s3,a0,v0
  103d68:	10a0000c 	beqz	a1,103d9c <gsKit_prim_quad_gouraud_3d+0x144>
  103d6c:	00628021 	addu	s0,v1,v0
  103d70:	3c021000 	lui	v0,0x1000
  103d74:	8da50008 	lw	a1,8(t5)
  103d78:	01821025 	or	v0,t4,v0
  103d7c:	8da40020 	lw	a0,32(t5)
  103d80:	0002103c 	dsll32	v0,v0,0x0
  103d84:	24a30010 	addiu	v1,a1,16
  103d88:	0002103e 	dsrl32	v0,v0,0x0
  103d8c:	ada30008 	sw	v1,8(t5)
  103d90:	fc820000 	sd	v0,0(a0)
  103d94:	ada00024 	sw	zero,36(t5)
  103d98:	ada50020 	sw	a1,32(t5)
  103d9c:	8da30014 	lw	v1,20(t5)
  103da0:	106a006b 	beq	v1,t2,103f50 <gsKit_prim_quad_gouraud_3d+0x2f8>
  103da4:	2402000b 	li	v0,11
  103da8:	10620008 	beq	v1,v0,103dcc <gsKit_prim_quad_gouraud_3d+0x174>
  103dac:	2402000e 	li	v0,14
  103db0:	50620007 	beql	v1,v0,103dd0 <gsKit_prim_quad_gouraud_3d+0x178>
  103db4:	8da20008 	lw	v0,8(t5)
  103db8:	8da20018 	lw	v0,24(t5)
  103dbc:	8da3001c 	lw	v1,28(t5)
  103dc0:	dc440000 	ld	a0,0(v0)
  103dc4:	00641825 	or	v1,v1,a0
  103dc8:	fc430000 	sd	v1,0(v0)
  103dcc:	8da20008 	lw	v0,8(t5)
  103dd0:	24110006 	li	s1,6
  103dd4:	ada0001c 	sw	zero,28(t5)
  103dd8:	24180060 	li	t8,96
  103ddc:	ada20018 	sw	v0,24(t5)
  103de0:	8dc50050 	lw	a1,80(t6)
  103de4:	8da40008 	lw	a0,8(t5)
  103de8:	8da2001c 	lw	v0,28(t5)
  103dec:	8da30024 	lw	v1,36(t5)
  103df0:	00983021 	addu	a2,a0,t8
  103df4:	8ca70018 	lw	a3,24(a1)
  103df8:	24420001 	addiu	v0,v0,1
  103dfc:	00711821 	addu	v1,v1,s1
  103e00:	0080602d 	move	t4,a0
  103e04:	ada60008 	sw	a2,8(t5)
  103e08:	ada2001c 	sw	v0,28(t5)
  103e0c:	adaa0014 	sw	t2,20(t5)
  103e10:	10870041 	beq	a0,a3,103f18 <gsKit_prim_quad_gouraud_3d+0x2c0>
  103e14:	ada30024 	sw	v1,36(t5)
  103e18:	8dc20090 	lw	v0,144(t6)
  103e1c:	01e0302d 	move	a2,t7
  103e20:	8dc30098 	lw	v1,152(t6)
  103e24:	00063438 	dsll	a2,a2,0x10
  103e28:	8dc50094 	lw	a1,148(t6)
  103e2c:	00021178 	dsll	v0,v0,0x5
  103e30:	000319b8 	dsll	v1,v1,0x6
  103e34:	8dc4008c 	lw	a0,140(t6)
  103e38:	00431025 	or	v0,v0,v1
  103e3c:	000529f8 	dsll	a1,a1,0x7
  103e40:	00451025 	or	v0,v0,a1
  103e44:	00042278 	dsll	a0,a0,0x9
  103e48:	00441025 	or	v0,v0,a0
  103e4c:	2403000c 	li	v1,12
  103e50:	00431025 	or	v0,v0,v1
  103e54:	03263025 	or	a2,t9,a2
  103e58:	fd820000 	sd	v0,0(t4)
  103e5c:	0015183c 	dsll32	v1,s5,0x0
  103e60:	0100102d 	move	v0,t0
  103e64:	258c0008 	addiu	t4,t4,8
  103e68:	fd940000 	sd	s4,0(t4)
  103e6c:	00c33025 	or	a2,a2,v1
  103e70:	258c0008 	addiu	t4,t4,8
  103e74:	00021438 	dsll	v0,v0,0x10
  103e78:	fd860000 	sd	a2,0(t4)
  103e7c:	0017183c 	dsll32	v1,s7,0x0
  103e80:	01621025 	or	v0,t3,v0
  103e84:	0120202d 	move	a0,t1
  103e88:	258c0008 	addiu	t4,t4,8
  103e8c:	8fa50000 	lw	a1,0(sp)
  103e90:	fd960000 	sd	s6,0(t4)
  103e94:	00431025 	or	v0,v0,v1
  103e98:	258c0008 	addiu	t4,t4,8
  103e9c:	8fa60010 	lw	a2,16(sp)
  103ea0:	0200182d 	move	v1,s0
  103ea4:	00042438 	dsll	a0,a0,0x10
  103ea8:	fd820000 	sd	v0,0(t4)
  103eac:	02442025 	or	a0,s2,a0
  103eb0:	0005103c 	dsll32	v0,a1,0x0
  103eb4:	258c0008 	addiu	t4,t4,8
  103eb8:	00031c38 	dsll	v1,v1,0x10
  103ebc:	fd9e0000 	sd	s8,0(t4)
  103ec0:	00822025 	or	a0,a0,v0
  103ec4:	02631825 	or	v1,s3,v1
  103ec8:	0006103c 	dsll32	v0,a2,0x0
  103ecc:	258c0008 	addiu	t4,t4,8
  103ed0:	fd840000 	sd	a0,0(t4)
  103ed4:	00621825 	or	v1,v1,v0
  103ed8:	258c0008 	addiu	t4,t4,8
  103edc:	dfbe00a0 	ld	s8,160(sp)
  103ee0:	fd830008 	sd	v1,8(t4)
  103ee4:	dfb70090 	ld	s7,144(sp)
  103ee8:	dfa200b0 	ld	v0,176(sp)
  103eec:	dfb60080 	ld	s6,128(sp)
  103ef0:	dfb50070 	ld	s5,112(sp)
  103ef4:	dfb40060 	ld	s4,96(sp)
  103ef8:	dfb30050 	ld	s3,80(sp)
  103efc:	dfb20040 	ld	s2,64(sp)
  103f00:	dfb10030 	ld	s1,48(sp)
  103f04:	dfb00020 	ld	s0,32(sp)
  103f08:	fd820000 	sd	v0,0(t4)
  103f0c:	03e00008 	jr	ra
  103f10:	27bd00b0 	addiu	sp,sp,176
  103f14:	00000000 	nop
  103f18:	3c02a400 	lui	v0,0xa400
  103f1c:	0002103c 	dsll32	v0,v0,0x0
  103f20:	34428000 	ori	v0,v0,0x8000
  103f24:	248c0008 	addiu	t4,a0,8
  103f28:	fc820000 	sd	v0,0(a0)
  103f2c:	24020015 	li	v0,21
  103f30:	00021438 	dsll	v0,v0,0x10
  103f34:	34421515 	ori	v0,v0,0x1515
  103f38:	00021438 	dsll	v0,v0,0x10
  103f3c:	34421510 	ori	v0,v0,0x1510
  103f40:	fd820000 	sd	v0,0(t4)
  103f44:	1000ffb4 	b	103e18 <gsKit_prim_quad_gouraud_3d+0x1c0>
  103f48:	258c0008 	addiu	t4,t4,8
  103f4c:	00000000 	nop
  103f50:	8da2001c 	lw	v0,28(t5)
  103f54:	28427fff 	slti	v0,v0,32767
  103f58:	5440ffa2 	bnezl	v0,103de4 <gsKit_prim_quad_gouraud_3d+0x18c>
  103f5c:	8dc50050 	lw	a1,80(t6)
  103f60:	1000ff91 	b	103da8 <gsKit_prim_quad_gouraud_3d+0x150>
  103f64:	2402000b 	li	v0,11
  103f68:	3c013f00 	lui	at,0x3f00
  103f6c:	44810000 	mtc1	at,$f0
  103f70:	00000000 	nop
  103f74:	46009b82 	mul.s	$f14,$f19,$f0
  103f78:	46006a82 	mul.s	$f10,$f13,$f0
  103f7c:	46007982 	mul.s	$f6,$f15,$f0
  103f80:	1000ff4f 	b	103cc0 <gsKit_prim_quad_gouraud_3d+0x68>
  103f84:	46008902 	mul.s	$f4,$f17,$f0

00103f88 <gsKit_texture_size_ee>:
  103f88:	27bdfff0 	addiu	sp,sp,-16
  103f8c:	2cc20015 	sltiu	v0,a2,21
  103f90:	ffbf0000 	sd	ra,0(sp)
  103f94:	10400012 	beqz	v0,103fe0 <gsKit_texture_size_ee+0x58>
  103f98:	0080382d 	move	a3,a0
  103f9c:	3c030016 	lui	v1,0x16
  103fa0:	00061080 	sll	v0,a2,0x2
  103fa4:	24631fac 	addiu	v1,v1,8108
  103fa8:	00431021 	addu	v0,v0,v1
  103fac:	8c440000 	lw	a0,0(v0)
  103fb0:	00800008 	jr	a0
  103fb4:	00000000 	nop
  103fb8:	00e51018 	mult	v0,a3,a1
  103fbc:	00021080 	sll	v0,v0,0x2
  103fc0:	dfbf0000 	ld	ra,0(sp)
  103fc4:	03e00008 	jr	ra
  103fc8:	27bd0010 	addiu	sp,sp,16
  103fcc:	00000000 	nop
  103fd0:	00e51018 	mult	v0,a3,a1
  103fd4:	1000fffa 	b	103fc0 <gsKit_texture_size_ee+0x38>
  103fd8:	00021040 	sll	v0,v0,0x1
  103fdc:	00000000 	nop
  103fe0:	3c040016 	lui	a0,0x16
  103fe4:	00c0282d 	move	a1,a2
  103fe8:	0c042988 	jal	10a620 <printf>
  103fec:	24841f90 	addiu	a0,a0,8080
  103ff0:	1000fff3 	b	103fc0 <gsKit_texture_size_ee+0x38>
  103ff4:	2402ffff 	li	v0,-1
  103ff8:	1000fff1 	b	103fc0 <gsKit_texture_size_ee+0x38>
  103ffc:	00e51018 	mult	v0,a3,a1
  104000:	00e51018 	mult	v0,a3,a1
  104004:	00021fc2 	srl	v1,v0,0x1f
  104008:	00431021 	addu	v0,v0,v1
  10400c:	1000ffec 	b	103fc0 <gsKit_texture_size_ee+0x38>
  104010:	00021043 	sra	v0,v0,0x1
  104014:	00000000 	nop

00104018 <gsKit_texture_size>:
  104018:	24c2ffed 	addiu	v0,a2,-19
  10401c:	27bdfff0 	addiu	sp,sp,-16
  104020:	2c420002 	sltiu	v0,v0,2
  104024:	10400028 	beqz	v0,1040c8 <gsKit_texture_size+0xb0>
  104028:	ffbf0000 	sd	ra,0(sp)
  10402c:	2483007f 	addiu	v1,a0,127
  104030:	2402ff80 	li	v0,-128
  104034:	00623824 	and	a3,v1,v0
  104038:	2cc40015 	sltiu	a0,a2,21
  10403c:	24a2003f 	addiu	v0,a1,63
  104040:	2403ffc0 	li	v1,-64
  104044:	10800012 	beqz	a0,104090 <gsKit_texture_size+0x78>
  104048:	00432824 	and	a1,v0,v1
  10404c:	3c030016 	lui	v1,0x16
  104050:	00061080 	sll	v0,a2,0x2
  104054:	24632000 	addiu	v1,v1,8192
  104058:	00431021 	addu	v0,v0,v1
  10405c:	8c440000 	lw	a0,0(v0)
  104060:	00800008 	jr	a0
  104064:	00000000 	nop
  104068:	00e51018 	mult	v0,a3,a1
  10406c:	00021080 	sll	v0,v0,0x2
  104070:	dfbf0000 	ld	ra,0(sp)
  104074:	03e00008 	jr	ra
  104078:	27bd0010 	addiu	sp,sp,16
  10407c:	00000000 	nop
  104080:	00e51018 	mult	v0,a3,a1
  104084:	1000fffa 	b	104070 <gsKit_texture_size+0x58>
  104088:	00021040 	sll	v0,v0,0x1
  10408c:	00000000 	nop
  104090:	3c040016 	lui	a0,0x16
  104094:	00c0282d 	move	a1,a2
  104098:	0c042988 	jal	10a620 <printf>
  10409c:	24841f90 	addiu	a0,a0,8080
  1040a0:	1000fff3 	b	104070 <gsKit_texture_size+0x58>
  1040a4:	2402ffff 	li	v0,-1
  1040a8:	1000fff1 	b	104070 <gsKit_texture_size+0x58>
  1040ac:	00e51018 	mult	v0,a3,a1
  1040b0:	00e51018 	mult	v0,a3,a1
  1040b4:	00021fc2 	srl	v1,v0,0x1f
  1040b8:	00431021 	addu	v0,v0,v1
  1040bc:	1000ffec 	b	104070 <gsKit_texture_size+0x58>
  1040c0:	00021043 	sra	v0,v0,0x1
  1040c4:	00000000 	nop
  1040c8:	2483003f 	addiu	v1,a0,63
  1040cc:	1000ffd9 	b	104034 <gsKit_texture_size+0x1c>
  1040d0:	2402ffc0 	li	v0,-64
  1040d4:	00000000 	nop

001040d8 <gsKit_texture_png>:
  1040d8:	27bdff00 	addiu	sp,sp,-256
  1040dc:	00c0202d 	move	a0,a2
  1040e0:	afa50020 	sw	a1,32(sp)
  1040e4:	24050001 	li	a1,1
  1040e8:	ffbf00c0 	sd	ra,192(sp)
  1040ec:	ffb00030 	sd	s0,48(sp)
  1040f0:	00c0802d 	move	s0,a2
  1040f4:	ffbe00b0 	sd	s8,176(sp)
  1040f8:	ffb700a0 	sd	s7,160(sp)
  1040fc:	ffb60090 	sd	s6,144(sp)
  104100:	ffb50080 	sd	s5,128(sp)
  104104:	ffb40070 	sd	s4,112(sp)
  104108:	ffb30060 	sd	s3,96(sp)
  10410c:	ffb20050 	sd	s2,80(sp)
  104110:	ffb10040 	sd	s1,64(sp)
  104114:	e7bf00fc 	swc1	$f31,252(sp)
  104118:	e7be00f8 	swc1	$f30,248(sp)
  10411c:	e7bd00f4 	swc1	$f29,244(sp)
  104120:	e7bc00f0 	swc1	$f28,240(sp)
  104124:	e7bb00ec 	swc1	$f27,236(sp)
  104128:	e7ba00e8 	swc1	$f26,232(sp)
  10412c:	e7b900e4 	swc1	$f25,228(sp)
  104130:	e7b800e0 	swc1	$f24,224(sp)
  104134:	e7b700dc 	swc1	$f23,220(sp)
  104138:	e7b600d8 	swc1	$f22,216(sp)
  10413c:	e7b500d4 	swc1	$f21,212(sp)
  104140:	0c0422c2 	jal	108b08 <fioOpen>
  104144:	e7b400d0 	swc1	$f20,208(sp)
  104148:	0040202d 	move	a0,v0
  10414c:	24060008 	li	a2,8
  104150:	03a0282d 	move	a1,sp
  104154:	0c042314 	jal	108c50 <fioRead>
  104158:	afa2001c 	sw	v0,28(sp)
  10415c:	24030008 	li	v1,8
  104160:	10430021 	beq	v0,v1,1041e8 <gsKit_texture_png+0x110>
  104164:	3c040016 	lui	a0,0x16
  104168:	0200282d 	move	a1,s0
  10416c:	24842058 	addiu	a0,a0,8280
  104170:	0c042988 	jal	10a620 <printf>
  104174:	00000000 	nop
  104178:	0c0422f4 	jal	108bd0 <fioClose>
  10417c:	8fa4001c 	lw	a0,28(sp)
  104180:	2402ffff 	li	v0,-1
  104184:	dfbf00c0 	ld	ra,192(sp)
  104188:	dfbe00b0 	ld	s8,176(sp)
  10418c:	dfb700a0 	ld	s7,160(sp)
  104190:	dfb60090 	ld	s6,144(sp)
  104194:	dfb50080 	ld	s5,128(sp)
  104198:	dfb40070 	ld	s4,112(sp)
  10419c:	dfb30060 	ld	s3,96(sp)
  1041a0:	dfb20050 	ld	s2,80(sp)
  1041a4:	dfb10040 	ld	s1,64(sp)
  1041a8:	dfb00030 	ld	s0,48(sp)
  1041ac:	c7bf00fc 	lwc1	$f31,252(sp)
  1041b0:	c7be00f8 	lwc1	$f30,248(sp)
  1041b4:	c7bd00f4 	lwc1	$f29,244(sp)
  1041b8:	c7bc00f0 	lwc1	$f28,240(sp)
  1041bc:	c7bb00ec 	lwc1	$f27,236(sp)
  1041c0:	c7ba00e8 	lwc1	$f26,232(sp)
  1041c4:	c7b900e4 	lwc1	$f25,228(sp)
  1041c8:	c7b800e0 	lwc1	$f24,224(sp)
  1041cc:	c7b700dc 	lwc1	$f23,220(sp)
  1041d0:	c7b600d8 	lwc1	$f22,216(sp)
  1041d4:	c7b500d4 	lwc1	$f21,212(sp)
  1041d8:	c7b400d0 	lwc1	$f20,208(sp)
  1041dc:	03e00008 	jr	ra
  1041e0:	27bd0100 	addiu	sp,sp,256
  1041e4:	00000000 	nop
  1041e8:	03a0202d 	move	a0,sp
  1041ec:	0000282d 	move	a1,zero
  1041f0:	0c051318 	jal	144c60 <png_sig_cmp>
  1041f4:	24060008 	li	a2,8
  1041f8:	50400005 	beqzl	v0,104210 <gsKit_texture_png+0x138>
  1041fc:	3c040016 	lui	a0,0x16
  104200:	3c040016 	lui	a0,0x16
  104204:	0200282d 	move	a1,s0
  104208:	1000ffd9 	b	104170 <gsKit_texture_png+0x98>
  10420c:	24842078 	addiu	a0,a0,8312
  104210:	0000282d 	move	a1,zero
  104214:	0000302d 	move	a2,zero
  104218:	24842070 	addiu	a0,a0,8304
  10421c:	0c0515e6 	jal	145798 <png_create_read_struct>
  104220:	0000382d 	move	a3,zero
  104224:	14400006 	bnez	v0,104240 <gsKit_texture_png+0x168>
  104228:	afa20010 	sw	v0,16(sp)
  10422c:	3c040016 	lui	a0,0x16
  104230:	0c042988 	jal	10a620 <printf>
  104234:	24842098 	addiu	a0,a0,8344
  104238:	1000ffcf 	b	104178 <gsKit_texture_png+0xa0>
  10423c:	00000000 	nop
  104240:	0c0513a6 	jal	144e98 <png_create_info_struct>
  104244:	0040202d 	move	a0,v0
  104248:	1440000d 	bnez	v0,104280 <gsKit_texture_png+0x1a8>
  10424c:	afa20014 	sw	v0,20(sp)
  104250:	3c040016 	lui	a0,0x16
  104254:	0c042988 	jal	10a620 <printf>
  104258:	248420b8 	addiu	a0,a0,8376
  10425c:	0c0422f4 	jal	108bd0 <fioClose>
  104260:	8fa4001c 	lw	a0,28(sp)
  104264:	0000282d 	move	a1,zero
  104268:	0000302d 	move	a2,zero
  10426c:	27a40010 	addiu	a0,sp,16
  104270:	0c051c5e 	jal	147178 <png_destroy_read_struct>
  104274:	00000000 	nop
  104278:	1000ffc2 	b	104184 <gsKit_texture_png+0xac>
  10427c:	2402ffff 	li	v0,-1
  104280:	0c0513a6 	jal	144e98 <png_create_info_struct>
  104284:	8fa40010 	lw	a0,16(sp)
  104288:	1440000a 	bnez	v0,1042b4 <gsKit_texture_png+0x1dc>
  10428c:	afa20018 	sw	v0,24(sp)
  104290:	3c040016 	lui	a0,0x16
  104294:	0c042988 	jal	10a620 <printf>
  104298:	248420d8 	addiu	a0,a0,8408
  10429c:	0c0422f4 	jal	108bd0 <fioClose>
  1042a0:	8fa4001c 	lw	a0,28(sp)
  1042a4:	27a50014 	addiu	a1,sp,20
  1042a8:	0000302d 	move	a2,zero
  1042ac:	1000fff0 	b	104270 <gsKit_texture_png+0x198>
  1042b0:	27a40010 	addiu	a0,sp,16
  1042b4:	0c042910 	jal	10a440 <setjmp>
  1042b8:	8fa40010 	lw	a0,16(sp)
  1042bc:	50400007 	beqzl	v0,1042dc <gsKit_texture_png+0x204>
  1042c0:	8fa40010 	lw	a0,16(sp)
  1042c4:	27a40010 	addiu	a0,sp,16
  1042c8:	27a50014 	addiu	a1,sp,20
  1042cc:	0c051c5e 	jal	147178 <png_destroy_read_struct>
  1042d0:	27a60018 	addiu	a2,sp,24
  1042d4:	1000ffa8 	b	104178 <gsKit_texture_png+0xa0>
  1042d8:	00000000 	nop
  1042dc:	3c060011 	lui	a2,0x11
  1042e0:	24c68078 	addiu	a2,a2,-32648
  1042e4:	0c051e42 	jal	147908 <png_set_read_fn>
  1042e8:	27a5001c 	addiu	a1,sp,28
  1042ec:	8fa40010 	lw	a0,16(sp)
  1042f0:	0c051300 	jal	144c00 <png_set_sig_bytes>
  1042f4:	24050008 	li	a1,8
  1042f8:	8fa40010 	lw	a0,16(sp)
  1042fc:	0c0517a8 	jal	145ea0 <png_read_info>
  104300:	8fa50014 	lw	a1,20(sp)
  104304:	8fa40010 	lw	a0,16(sp)
  104308:	0c051936 	jal	1464d8 <png_read_update_info>
  10430c:	8fa50014 	lw	a1,20(sp)
  104310:	8fa20020 	lw	v0,32(sp)
  104314:	8fa30010 	lw	v1,16(sp)
  104318:	8c660188 	lw	a2,392(v1)
  10431c:	8c650190 	lw	a1,400(v1)
  104320:	ac460000 	sw	a2,0(v0)
  104324:	ac450004 	sw	a1,4(v0)
  104328:	24020020 	li	v0,32
  10432c:	9064021d 	lbu	a0,541(v1)
  104330:	10820014 	beq	a0,v0,104384 <gsKit_texture_png+0x2ac>
  104334:	8fa30020 	lw	v1,32(sp)
  104338:	3c040016 	lui	a0,0x16
  10433c:	0c042988 	jal	10a620 <printf>
  104340:	24842100 	addiu	a0,a0,8448
  104344:	0c0422f4 	jal	108bd0 <fioClose>
  104348:	8fa4001c 	lw	a0,28(sp)
  10434c:	27a50014 	addiu	a1,sp,20
  104350:	27a60018 	addiu	a2,sp,24
  104354:	0c051c5e 	jal	147178 <png_destroy_read_struct>
  104358:	27a40010 	addiu	a0,sp,16
  10435c:	8fa30020 	lw	v1,32(sp)
  104360:	90620024 	lbu	v0,36(v1)
  104364:	14400003 	bnez	v0,104374 <gsKit_texture_png+0x29c>
  104368:	00000000 	nop
  10436c:	1000ff85 	b	104184 <gsKit_texture_png+0xac>
  104370:	0000102d 	move	v0,zero
  104374:	0c042032 	jal	1080c8 <gsKit_setup_tbw>
  104378:	8fa40020 	lw	a0,32(sp)
  10437c:	1000ff81 	b	104184 <gsKit_texture_png+0xac>
  104380:	0000102d 	move	v0,zero
  104384:	00c0202d 	move	a0,a2
  104388:	0000302d 	move	a2,zero
  10438c:	0c040fe2 	jal	103f88 <gsKit_texture_size_ee>
  104390:	a0600008 	sb	zero,8(v1)
  104394:	24040080 	li	a0,128
  104398:	0c0429c4 	jal	10a710 <memalign>
  10439c:	0040282d 	move	a1,v0
  1043a0:	3c040016 	lui	a0,0x16
  1043a4:	8fa30020 	lw	v1,32(sp)
  1043a8:	24842130 	addiu	a0,a0,8496
  1043ac:	0c042988 	jal	10a620 <printf>
  1043b0:	ac620010 	sw	v0,16(v1)
  1043b4:	8fa40010 	lw	a0,16(sp)
  1043b8:	8fa20020 	lw	v0,32(sp)
  1043bc:	0c051aec 	jal	146bb0 <png_read_image>
  1043c0:	8c450010 	lw	a1,16(v0)
  1043c4:	3c040016 	lui	a0,0x16
  1043c8:	0c042988 	jal	10a620 <printf>
  1043cc:	24842140 	addiu	a0,a0,8512
  1043d0:	8fa40010 	lw	a0,16(sp)
  1043d4:	0c051b14 	jal	146c50 <png_read_end>
  1043d8:	8fa50018 	lw	a1,24(sp)
  1043dc:	1000ffd9 	b	104344 <gsKit_texture_png+0x26c>
  1043e0:	00000000 	nop
  1043e4:	00000000 	nop

001043e8 <gsKit_texture_bmp>:
  1043e8:	27bdff10 	addiu	sp,sp,-240
  1043ec:	ffb700c0 	sd	s7,192(sp)
  1043f0:	0080b82d 	move	s7,a0
  1043f4:	ffb20070 	sd	s2,112(sp)
  1043f8:	00c0202d 	move	a0,a2
  1043fc:	00a0902d 	move	s2,a1
  104400:	ffb600b0 	sd	s6,176(sp)
  104404:	24050001 	li	a1,1
  104408:	ffb00050 	sd	s0,80(sp)
  10440c:	ffbf00e0 	sd	ra,224(sp)
  104410:	00c0802d 	move	s0,a2
  104414:	ffbe00d0 	sd	s8,208(sp)
  104418:	ffb500a0 	sd	s5,160(sp)
  10441c:	ffb40090 	sd	s4,144(sp)
  104420:	ffb30080 	sd	s3,128(sp)
  104424:	0c0422c2 	jal	108b08 <fioOpen>
  104428:	ffb10060 	sd	s1,96(sp)
  10442c:	0040202d 	move	a0,v0
  104430:	03a0282d 	move	a1,sp
  104434:	2406000e 	li	a2,14
  104438:	0c042314 	jal	108c50 <fioRead>
  10443c:	0040b02d 	move	s6,v0
  104440:	18400151 	blez	v0,104988 <gsKit_texture_bmp+0x5a0>
  104444:	27a5000e 	addiu	a1,sp,14
  104448:	02c0202d 	move	a0,s6
  10444c:	0c042314 	jal	108c50 <fioRead>
  104450:	24060028 	li	a2,40
  104454:	1840014d 	blez	v0,10498c <gsKit_texture_bmp+0x5a4>
  104458:	3c040016 	lui	a0,0x16
  10445c:	8ba20015 	lwl	v0,21(sp)
  104460:	9ba20012 	lwr	v0,18(sp)
  104464:	8ba30019 	lwl	v1,25(sp)
  104468:	9ba30016 	lwr	v1,22(sp)
  10446c:	97a4001c 	lhu	a0,28(sp)
  104470:	ae420000 	sw	v0,0(s2)
  104474:	24020004 	li	v0,4
  104478:	ae430004 	sw	v1,4(s2)
  10447c:	10440148 	beq	v0,a0,1049a0 <gsKit_texture_bmp+0x5b8>
  104480:	ae400020 	sw	zero,32(s2)
  104484:	24020008 	li	v0,8
  104488:	104400e5 	beq	v0,a0,104820 <gsKit_texture_bmp+0x438>
  10448c:	3083ffff 	andi	v1,a0,0xffff
  104490:	24020010 	li	v0,16
  104494:	106200e0 	beq	v1,v0,104818 <gsKit_texture_bmp+0x430>
  104498:	24020002 	li	v0,2
  10449c:	24020018 	li	v0,24
  1044a0:	506200d9 	beql	v1,v0,104808 <gsKit_texture_bmp+0x420>
  1044a4:	ae40001c 	sw	zero,28(s2)
  1044a8:	02c0202d 	move	a0,s6
  1044ac:	0000282d 	move	a1,zero
  1044b0:	0c04235a 	jal	108d68 <fioLseek>
  1044b4:	24060002 	li	a2,2
  1044b8:	02c0202d 	move	a0,s6
  1044bc:	0040a02d 	move	s4,v0
  1044c0:	8ba5000d 	lwl	a1,13(sp)
  1044c4:	9ba5000a 	lwr	a1,10(sp)
  1044c8:	8ba2000d 	lwl	v0,13(sp)
  1044cc:	9ba2000a 	lwr	v0,10(sp)
  1044d0:	0000302d 	move	a2,zero
  1044d4:	0c04235a 	jal	108d68 <fioLseek>
  1044d8:	0282a023 	subu	s4,s4,v0
  1044dc:	92460008 	lbu	a2,8(s2)
  1044e0:	8e440000 	lw	a0,0(s2)
  1044e4:	0c040fe2 	jal	103f88 <gsKit_texture_size_ee>
  1044e8:	8e450004 	lw	a1,4(s2)
  1044ec:	8e440000 	lw	a0,0(s2)
  1044f0:	8e450004 	lw	a1,4(s2)
  1044f4:	0040802d 	move	s0,v0
  1044f8:	0c041006 	jal	104018 <gsKit_texture_size>
  1044fc:	92460008 	lbu	a2,8(s2)
  104500:	24040080 	li	a0,128
  104504:	0200282d 	move	a1,s0
  104508:	0c0429c4 	jal	10a710 <memalign>
  10450c:	0040f02d 	move	s8,v0
  104510:	97a5001c 	lhu	a1,28(sp)
  104514:	0040182d 	move	v1,v0
  104518:	ae420010 	sw	v0,16(s2)
  10451c:	24020018 	li	v0,24
  104520:	10a20075 	beq	a1,v0,1046f8 <gsKit_texture_bmp+0x310>
  104524:	24040080 	li	a0,128
  104528:	24020010 	li	v0,16
  10452c:	10a2006d 	beq	a1,v0,1046e4 <gsKit_texture_bmp+0x2fc>
  104530:	24020008 	li	v0,8
  104534:	10a2002b 	beq	a1,v0,1045e4 <gsKit_texture_bmp+0x1fc>
  104538:	24020004 	li	v0,4
  10453c:	10a20028 	beq	a1,v0,1045e0 <gsKit_texture_bmp+0x1f8>
  104540:	3c040016 	lui	a0,0x16
  104544:	0c042988 	jal	10a620 <printf>
  104548:	24842178 	addiu	a0,a0,8568
  10454c:	0c0422f4 	jal	108bd0 <fioClose>
  104550:	02c0202d 	move	a0,s6
  104554:	92430024 	lbu	v1,36(s2)
  104558:	1460001d 	bnez	v1,1045d0 <gsKit_texture_bmp+0x1e8>
  10455c:	03c0282d 	move	a1,s8
  104560:	02e0202d 	move	a0,s7
  104564:	0c0400f2 	jal	1003c8 <gsKit_vram_alloc>
  104568:	24060001 	li	a2,1
  10456c:	14400011 	bnez	v0,1045b4 <gsKit_texture_bmp+0x1cc>
  104570:	ae420018 	sw	v0,24(s2)
  104574:	3c040016 	lui	a0,0x16
  104578:	0c042988 	jal	10a620 <printf>
  10457c:	248421a0 	addiu	a0,a0,8608
  104580:	2402ffff 	li	v0,-1
  104584:	dfbf00e0 	ld	ra,224(sp)
  104588:	dfbe00d0 	ld	s8,208(sp)
  10458c:	dfb700c0 	ld	s7,192(sp)
  104590:	dfb600b0 	ld	s6,176(sp)
  104594:	dfb500a0 	ld	s5,160(sp)
  104598:	dfb40090 	ld	s4,144(sp)
  10459c:	dfb30080 	ld	s3,128(sp)
  1045a0:	dfb20070 	ld	s2,112(sp)
  1045a4:	dfb10060 	ld	s1,96(sp)
  1045a8:	dfb00050 	ld	s0,80(sp)
  1045ac:	03e00008 	jr	ra
  1045b0:	27bd00f0 	addiu	sp,sp,240
  1045b4:	02e0202d 	move	a0,s7
  1045b8:	0c041682 	jal	105a08 <gsKit_texture_upload>
  1045bc:	0240282d 	move	a1,s2
  1045c0:	0c042a16 	jal	10a858 <free>
  1045c4:	8e440010 	lw	a0,16(s2)
  1045c8:	1000ffee 	b	104584 <gsKit_texture_bmp+0x19c>
  1045cc:	0000102d 	move	v0,zero
  1045d0:	0c042032 	jal	1080c8 <gsKit_setup_tbw>
  1045d4:	0240202d 	move	a0,s2
  1045d8:	1000ffea 	b	104584 <gsKit_texture_bmp+0x19c>
  1045dc:	0000102d 	move	v0,zero
  1045e0:	24040080 	li	a0,128
  1045e4:	0280282d 	move	a1,s4
  1045e8:	3c023000 	lui	v0,0x3000
  1045ec:	0c0429c4 	jal	10a710 <memalign>
  1045f0:	00629825 	or	s3,v1,v0
  1045f4:	0040282d 	move	a1,v0
  1045f8:	02c0202d 	move	a0,s6
  1045fc:	0280302d 	move	a2,s4
  104600:	0c042314 	jal	108c50 <fioRead>
  104604:	0040882d 	move	s1,v0
  104608:	10540007 	beq	v0,s4,104628 <gsKit_texture_bmp+0x240>
  10460c:	3c040016 	lui	a0,0x16
  104610:	0c042988 	jal	10a620 <printf>
  104614:	248421d8 	addiu	a0,a0,8664
  104618:	0c042a16 	jal	10a858 <free>
  10461c:	0220202d 	move	a0,s1
  104620:	0c0422f4 	jal	108bd0 <fioClose>
  104624:	02c0202d 	move	a0,s6
  104628:	8e430004 	lw	v1,4(s2)
  10462c:	2470ffff 	addiu	s0,v1,-1
  104630:	06000011 	bltz	s0,104678 <gsKit_texture_bmp+0x290>
  104634:	24150008 	li	s5,8
  104638:	00701023 	subu	v0,v1,s0
  10463c:	2444ffff 	addiu	a0,v0,-1
  104640:	97a2001c 	lhu	v0,28(sp)
  104644:	10550025 	beq	v0,s5,1046dc <gsKit_texture_bmp+0x2f4>
  104648:	8e460000 	lw	a2,0(s2)
  10464c:	00063042 	srl	a2,a2,0x1
  104650:	00861018 	mult	v0,a0,a2
  104654:	00512821 	addu	a1,v0,s1
  104658:	02061018 	mult	v0,s0,a2
  10465c:	2610ffff 	addiu	s0,s0,-1
  104660:	0c04226a 	jal	1089a8 <memcpy>
  104664:	00532021 	addu	a0,v0,s3
  104668:	06000003 	bltz	s0,104678 <gsKit_texture_bmp+0x290>
  10466c:	00000000 	nop
  104670:	1000fff1 	b	104638 <gsKit_texture_bmp+0x250>
  104674:	8e430004 	lw	v1,4(s2)
  104678:	0c042a16 	jal	10a858 <free>
  10467c:	0220202d 	move	a0,s1
  104680:	24020004 	li	v0,4
  104684:	97a3001c 	lhu	v1,28(sp)
  104688:	1462ffb0 	bne	v1,v0,10454c <gsKit_texture_bmp+0x164>
  10468c:	3c023000 	lui	v0,0x3000
  104690:	8e430010 	lw	v1,16(s2)
  104694:	0000302d 	move	a2,zero
  104698:	1280000b 	beqz	s4,1046c8 <gsKit_texture_bmp+0x2e0>
  10469c:	00623825 	or	a3,v1,v0
  1046a0:	02661821 	addu	v1,s3,a2
  1046a4:	00e62821 	addu	a1,a3,a2
  1046a8:	90620000 	lbu	v0,0(v1)
  1046ac:	24c60001 	addiu	a2,a2,1
  1046b0:	00d4202b 	sltu	a0,a2,s4
  1046b4:	00021902 	srl	v1,v0,0x4
  1046b8:	00021100 	sll	v0,v0,0x4
  1046bc:	00431025 	or	v0,v0,v1
  1046c0:	1480fff7 	bnez	a0,1046a0 <gsKit_texture_bmp+0x2b8>
  1046c4:	a0a20000 	sb	v0,0(a1)
  1046c8:	0260202d 	move	a0,s3
  1046cc:	0c042a16 	jal	10a858 <free>
  1046d0:	00000000 	nop
  1046d4:	1000ff9d 	b	10454c <gsKit_texture_bmp+0x164>
  1046d8:	00000000 	nop
  1046dc:	1000ffdd 	b	104654 <gsKit_texture_bmp+0x26c>
  1046e0:	00861018 	mult	v0,a0,a2
  1046e4:	3c040016 	lui	a0,0x16
  1046e8:	0c042988 	jal	10a620 <printf>
  1046ec:	248421e8 	addiu	a0,a0,8680
  1046f0:	1000ff96 	b	10454c <gsKit_texture_bmp+0x164>
  1046f4:	00000000 	nop
  1046f8:	0c0429c4 	jal	10a710 <memalign>
  1046fc:	0280282d 	move	a1,s4
  104700:	0040882d 	move	s1,v0
  104704:	1220ff9f 	beqz	s1,104584 <gsKit_texture_bmp+0x19c>
  104708:	2402ffff 	li	v0,-1
  10470c:	0280302d 	move	a2,s4
  104710:	02c0202d 	move	a0,s6
  104714:	0c042314 	jal	108c50 <fioRead>
  104718:	0220282d 	move	a1,s1
  10471c:	3c033000 	lui	v1,0x3000
  104720:	8e420004 	lw	v0,4(s2)
  104724:	0000382d 	move	a3,zero
  104728:	8e440010 	lw	a0,16(s2)
  10472c:	2450ffff 	addiu	s0,v0,-1
  104730:	06000033 	bltz	s0,104800 <gsKit_texture_bmp+0x418>
  104734:	00833025 	or	a2,a0,v1
  104738:	8e440000 	lw	a0,0(s2)
  10473c:	0080182d 	move	v1,a0
  104740:	1080002c 	beqz	a0,1047f4 <gsKit_texture_bmp+0x40c>
  104744:	0000402d 	move	t0,zero
  104748:	00e31018 	mult	v0,a3,v1
  10474c:	00482021 	addu	a0,v0,t0
  104750:	02031018 	mult	v0,s0,v1
  104754:	00482821 	addu	a1,v0,t0
  104758:	00041040 	sll	v0,a0,0x1
  10475c:	00441021 	addu	v0,v0,a0
  104760:	00051840 	sll	v1,a1,0x1
  104764:	00511021 	addu	v0,v0,s1
  104768:	00651821 	addu	v1,v1,a1
  10476c:	90440000 	lbu	a0,0(v0)
  104770:	00661821 	addu	v1,v1,a2
  104774:	a0640002 	sb	a0,2(v1)
  104778:	8e420000 	lw	v0,0(s2)
  10477c:	00e21818 	mult	v1,a3,v0
  104780:	00682821 	addu	a1,v1,t0
  104784:	02021818 	mult	v1,s0,v0
  104788:	00681021 	addu	v0,v1,t0
  10478c:	00051840 	sll	v1,a1,0x1
  104790:	00651821 	addu	v1,v1,a1
  104794:	00022040 	sll	a0,v0,0x1
  104798:	00711821 	addu	v1,v1,s1
  10479c:	00822021 	addu	a0,a0,v0
  1047a0:	90620001 	lbu	v0,1(v1)
  1047a4:	00862021 	addu	a0,a0,a2
  1047a8:	a0820001 	sb	v0,1(a0)
  1047ac:	8e450000 	lw	a1,0(s2)
  1047b0:	00e51018 	mult	v0,a3,a1
  1047b4:	00482021 	addu	a0,v0,t0
  1047b8:	02051018 	mult	v0,s0,a1
  1047bc:	00482821 	addu	a1,v0,t0
  1047c0:	00041040 	sll	v0,a0,0x1
  1047c4:	00441021 	addu	v0,v0,a0
  1047c8:	00051840 	sll	v1,a1,0x1
  1047cc:	00511021 	addu	v0,v0,s1
  1047d0:	00651821 	addu	v1,v1,a1
  1047d4:	90440002 	lbu	a0,2(v0)
  1047d8:	00661821 	addu	v1,v1,a2
  1047dc:	25080001 	addiu	t0,t0,1
  1047e0:	a0640000 	sb	a0,0(v1)
  1047e4:	8e430000 	lw	v1,0(s2)
  1047e8:	0103102b 	sltu	v0,t0,v1
  1047ec:	1440ffd6 	bnez	v0,104748 <gsKit_texture_bmp+0x360>
  1047f0:	0060202d 	move	a0,v1
  1047f4:	2610ffff 	addiu	s0,s0,-1
  1047f8:	0601ffd0 	bgez	s0,10473c <gsKit_texture_bmp+0x354>
  1047fc:	24e70001 	addiu	a3,a3,1
  104800:	1000ffb2 	b	1046cc <gsKit_texture_bmp+0x2e4>
  104804:	0220202d 	move	a0,s1
  104808:	24020001 	li	v0,1
  10480c:	a2420008 	sb	v0,8(s2)
  104810:	1000ff25 	b	1044a8 <gsKit_texture_bmp+0xc0>
  104814:	ae400014 	sw	zero,20(s2)
  104818:	1000fffc 	b	10480c <gsKit_texture_bmp+0x424>
  10481c:	ae40001c 	sw	zero,28(s2)
  104820:	24020013 	li	v0,19
  104824:	0000302d 	move	a2,zero
  104828:	a2420008 	sb	v0,8(s2)
  10482c:	24040010 	li	a0,16
  104830:	0c040fe2 	jal	103f88 <gsKit_texture_size_ee>
  104834:	24050010 	li	a1,16
  104838:	24040080 	li	a0,128
  10483c:	0c0429c4 	jal	10a710 <memalign>
  104840:	0040282d 	move	a1,v0
  104844:	24050010 	li	a1,16
  104848:	ae420014 	sw	v0,20(s2)
  10484c:	0000302d 	move	a2,zero
  104850:	a2400009 	sb	zero,9(s2)
  104854:	0c040fe2 	jal	103f88 <gsKit_texture_size_ee>
  104858:	24040010 	li	a0,16
  10485c:	8e440014 	lw	a0,20(s2)
  104860:	0000282d 	move	a1,zero
  104864:	0c042296 	jal	108a58 <memset>
  104868:	0040302d 	move	a2,v0
  10486c:	24050010 	li	a1,16
  104870:	0000302d 	move	a2,zero
  104874:	0c041006 	jal	104018 <gsKit_texture_size>
  104878:	24040010 	li	a0,16
  10487c:	24060001 	li	a2,1
  104880:	02e0202d 	move	a0,s7
  104884:	0c0400f2 	jal	1003c8 <gsKit_vram_alloc>
  104888:	0040282d 	move	a1,v0
  10488c:	24050036 	li	a1,54
  104890:	ae42001c 	sw	v0,28(s2)
  104894:	0000302d 	move	a2,zero
  104898:	0c04235a 	jal	108d68 <fioLseek>
  10489c:	02c0202d 	move	a0,s6
  1048a0:	02c0202d 	move	a0,s6
  1048a4:	8ba60031 	lwl	a2,49(sp)
  1048a8:	9ba6002e 	lwr	a2,46(sp)
  1048ac:	8e450014 	lw	a1,20(s2)
  1048b0:	0c042314 	jal	108c50 <fioRead>
  1048b4:	00063080 	sll	a2,a2,0x2
  1048b8:	18400034 	blez	v0,10498c <gsKit_texture_bmp+0x5a4>
  1048bc:	3c040016 	lui	a0,0x16
  1048c0:	8bb00031 	lwl	s0,49(sp)
  1048c4:	9bb0002e 	lwr	s0,46(sp)
  1048c8:	2a020100 	slti	v0,s0,256
  1048cc:	1040000b 	beqz	v0,1048fc <gsKit_texture_bmp+0x514>
  1048d0:	8e530014 	lw	s3,20(s2)
  1048d4:	00101080 	sll	v0,s0,0x2
  1048d8:	00538821 	addu	s1,v0,s3
  1048dc:	0220202d 	move	a0,s1
  1048e0:	0000282d 	move	a1,zero
  1048e4:	24060004 	li	a2,4
  1048e8:	0c042296 	jal	108a58 <memset>
  1048ec:	26100001 	addiu	s0,s0,1
  1048f0:	2a020100 	slti	v0,s0,256
  1048f4:	1440fff9 	bnez	v0,1048dc <gsKit_texture_bmp+0x4f4>
  1048f8:	26310004 	addiu	s1,s1,4
  1048fc:	0260202d 	move	a0,s3
  104900:	241000ff 	li	s0,255
  104904:	00000000 	nop
  104908:	90830000 	lbu	v1,0(a0)
  10490c:	2610ffff 	addiu	s0,s0,-1
  104910:	90820002 	lbu	v0,2(a0)
  104914:	a0800003 	sb	zero,3(a0)
  104918:	a0830002 	sb	v1,2(a0)
  10491c:	a0820000 	sb	v0,0(a0)
  104920:	0601fff9 	bgez	s0,104908 <gsKit_texture_bmp+0x520>
  104924:	24840004 	addiu	a0,a0,4
  104928:	0260182d 	move	v1,s3
  10492c:	0000802d 	move	s0,zero
  104930:	24050008 	li	a1,8
  104934:	32020018 	andi	v0,s0,0x18
  104938:	26100001 	addiu	s0,s0,1
  10493c:	10450005 	beq	v0,a1,104954 <gsKit_texture_bmp+0x56c>
  104940:	2a040100 	slti	a0,s0,256
  104944:	1480fffb 	bnez	a0,104934 <gsKit_texture_bmp+0x54c>
  104948:	24630004 	addiu	v1,v1,4
  10494c:	1000fed7 	b	1044ac <gsKit_texture_bmp+0xc4>
  104950:	02c0202d 	move	a0,s6
  104954:	88620003 	lwl	v0,3(v1)
  104958:	98620000 	lwr	v0,0(v1)
  10495c:	aba20043 	swl	v0,67(sp)
  104960:	bba20040 	swr	v0,64(sp)
  104964:	88620023 	lwl	v0,35(v1)
  104968:	98620020 	lwr	v0,32(v1)
  10496c:	a8620003 	swl	v0,3(v1)
  104970:	b8620000 	swr	v0,0(v1)
  104974:	8ba20043 	lwl	v0,67(sp)
  104978:	9ba20040 	lwr	v0,64(sp)
  10497c:	a8620023 	swl	v0,35(v1)
  104980:	1000fff0 	b	104944 <gsKit_texture_bmp+0x55c>
  104984:	b8620020 	swr	v0,32(v1)
  104988:	3c040016 	lui	a0,0x16
  10498c:	0200282d 	move	a1,s0
  104990:	0c042988 	jal	10a620 <printf>
  104994:	24842158 	addiu	a0,a0,8536
  104998:	1000fefa 	b	104584 <gsKit_texture_bmp+0x19c>
  10499c:	2402ffff 	li	v0,-1
  1049a0:	24020014 	li	v0,20
  1049a4:	0000302d 	move	a2,zero
  1049a8:	a2420008 	sb	v0,8(s2)
  1049ac:	24040008 	li	a0,8
  1049b0:	0c040fe2 	jal	103f88 <gsKit_texture_size_ee>
  1049b4:	24050002 	li	a1,2
  1049b8:	24040080 	li	a0,128
  1049bc:	0c0429c4 	jal	10a710 <memalign>
  1049c0:	0040282d 	move	a1,v0
  1049c4:	24050002 	li	a1,2
  1049c8:	ae420014 	sw	v0,20(s2)
  1049cc:	0000302d 	move	a2,zero
  1049d0:	a2400009 	sb	zero,9(s2)
  1049d4:	0c040fe2 	jal	103f88 <gsKit_texture_size_ee>
  1049d8:	24040008 	li	a0,8
  1049dc:	8e440014 	lw	a0,20(s2)
  1049e0:	0000282d 	move	a1,zero
  1049e4:	0c042296 	jal	108a58 <memset>
  1049e8:	0040302d 	move	a2,v0
  1049ec:	24050002 	li	a1,2
  1049f0:	0000302d 	move	a2,zero
  1049f4:	0c041006 	jal	104018 <gsKit_texture_size>
  1049f8:	24040008 	li	a0,8
  1049fc:	24060001 	li	a2,1
  104a00:	02e0202d 	move	a0,s7
  104a04:	0c0400f2 	jal	1003c8 <gsKit_vram_alloc>
  104a08:	0040282d 	move	a1,v0
  104a0c:	24050036 	li	a1,54
  104a10:	ae42001c 	sw	v0,28(s2)
  104a14:	0000302d 	move	a2,zero
  104a18:	0c04235a 	jal	108d68 <fioLseek>
  104a1c:	02c0202d 	move	a0,s6
  104a20:	02c0202d 	move	a0,s6
  104a24:	8ba60031 	lwl	a2,49(sp)
  104a28:	9ba6002e 	lwr	a2,46(sp)
  104a2c:	8e450014 	lw	a1,20(s2)
  104a30:	0c042314 	jal	108c50 <fioRead>
  104a34:	00063080 	sll	a2,a2,0x2
  104a38:	1840ffd4 	blez	v0,10498c <gsKit_texture_bmp+0x5a4>
  104a3c:	3c040016 	lui	a0,0x16
  104a40:	8bb00031 	lwl	s0,49(sp)
  104a44:	9bb0002e 	lwr	s0,46(sp)
  104a48:	2a020010 	slti	v0,s0,16
  104a4c:	1040000b 	beqz	v0,104a7c <gsKit_texture_bmp+0x694>
  104a50:	8e530014 	lw	s3,20(s2)
  104a54:	00101080 	sll	v0,s0,0x2
  104a58:	00538821 	addu	s1,v0,s3
  104a5c:	0220202d 	move	a0,s1
  104a60:	0000282d 	move	a1,zero
  104a64:	24060004 	li	a2,4
  104a68:	0c042296 	jal	108a58 <memset>
  104a6c:	26100001 	addiu	s0,s0,1
  104a70:	2a020010 	slti	v0,s0,16
  104a74:	1440fff9 	bnez	v0,104a5c <gsKit_texture_bmp+0x674>
  104a78:	26310004 	addiu	s1,s1,4
  104a7c:	0260282d 	move	a1,s3
  104a80:	0000802d 	move	s0,zero
  104a84:	90a20000 	lbu	v0,0(a1)
  104a88:	26100001 	addiu	s0,s0,1
  104a8c:	90a30002 	lbu	v1,2(a1)
  104a90:	2a040010 	slti	a0,s0,16
  104a94:	a0a20002 	sb	v0,2(a1)
  104a98:	a0a30000 	sb	v1,0(a1)
  104a9c:	a0a00003 	sb	zero,3(a1)
  104aa0:	1480fff8 	bnez	a0,104a84 <gsKit_texture_bmp+0x69c>
  104aa4:	24a50004 	addiu	a1,a1,4
  104aa8:	1000fe80 	b	1044ac <gsKit_texture_bmp+0xc4>
  104aac:	02c0202d 	move	a0,s6

00104ab0 <gsKit_texture_jpeg>:
  104ab0:	27bdffa0 	addiu	sp,sp,-96
  104ab4:	ffb40040 	sd	s4,64(sp)
  104ab8:	0080a02d 	move	s4,a0
  104abc:	00c0202d 	move	a0,a2
  104ac0:	ffb30030 	sd	s3,48(sp)
  104ac4:	ffb20020 	sd	s2,32(sp)
  104ac8:	00a0902d 	move	s2,a1
  104acc:	ffbf0050 	sd	ra,80(sp)
  104ad0:	ffb10010 	sd	s1,16(sp)
  104ad4:	0c043104 	jal	10c410 <jpgOpen>
  104ad8:	ffb00000 	sd	s0,0(sp)
  104adc:	0040982d 	move	s3,v0
  104ae0:	1260002b 	beqz	s3,104b90 <gsKit_texture_jpeg+0xe0>
  104ae4:	2402ffff 	li	v0,-1
  104ae8:	8e640000 	lw	a0,0(s3)
  104aec:	24020001 	li	v0,1
  104af0:	ae400014 	sw	zero,20(s2)
  104af4:	24060001 	li	a2,1
  104af8:	ae440000 	sw	a0,0(s2)
  104afc:	8e650004 	lw	a1,4(s3)
  104b00:	a2420008 	sb	v0,8(s2)
  104b04:	ae450004 	sw	a1,4(s2)
  104b08:	ae400020 	sw	zero,32(s2)
  104b0c:	0c040fe2 	jal	103f88 <gsKit_texture_size_ee>
  104b10:	ae40001c 	sw	zero,28(s2)
  104b14:	8e440000 	lw	a0,0(s2)
  104b18:	92460008 	lbu	a2,8(s2)
  104b1c:	0040802d 	move	s0,v0
  104b20:	0c041006 	jal	104018 <gsKit_texture_size>
  104b24:	8e450004 	lw	a1,4(s2)
  104b28:	24040080 	li	a0,128
  104b2c:	0200282d 	move	a1,s0
  104b30:	0c0429c4 	jal	10a710 <memalign>
  104b34:	0040882d 	move	s1,v0
  104b38:	0260202d 	move	a0,s3
  104b3c:	ae420010 	sw	v0,16(s2)
  104b40:	0c04313a 	jal	10c4e8 <jpgReadImage>
  104b44:	0040282d 	move	a1,v0
  104b48:	0c043266 	jal	10c998 <jpgClose>
  104b4c:	0260202d 	move	a0,s3
  104b50:	0280202d 	move	a0,s4
  104b54:	92420024 	lbu	v0,36(s2)
  104b58:	0220282d 	move	a1,s1
  104b5c:	1440001a 	bnez	v0,104bc8 <gsKit_texture_jpeg+0x118>
  104b60:	24060001 	li	a2,1
  104b64:	0c0400f2 	jal	1003c8 <gsKit_vram_alloc>
  104b68:	00000000 	nop
  104b6c:	0280202d 	move	a0,s4
  104b70:	ae420018 	sw	v0,24(s2)
  104b74:	1440000e 	bnez	v0,104bb0 <gsKit_texture_jpeg+0x100>
  104b78:	0240282d 	move	a1,s2
  104b7c:	3c040016 	lui	a0,0x16
  104b80:	0c042988 	jal	10a620 <printf>
  104b84:	248421a0 	addiu	a0,a0,8608
  104b88:	2402ffff 	li	v0,-1
  104b8c:	00000000 	nop
  104b90:	dfbf0050 	ld	ra,80(sp)
  104b94:	dfb40040 	ld	s4,64(sp)
  104b98:	dfb30030 	ld	s3,48(sp)
  104b9c:	dfb20020 	ld	s2,32(sp)
  104ba0:	dfb10010 	ld	s1,16(sp)
  104ba4:	dfb00000 	ld	s0,0(sp)
  104ba8:	03e00008 	jr	ra
  104bac:	27bd0060 	addiu	sp,sp,96
  104bb0:	0c041682 	jal	105a08 <gsKit_texture_upload>
  104bb4:	00000000 	nop
  104bb8:	0c042a16 	jal	10a858 <free>
  104bbc:	8e440010 	lw	a0,16(s2)
  104bc0:	1000fff3 	b	104b90 <gsKit_texture_jpeg+0xe0>
  104bc4:	0000102d 	move	v0,zero
  104bc8:	0c042032 	jal	1080c8 <gsKit_setup_tbw>
  104bcc:	0240202d 	move	a0,s2
  104bd0:	1000ffef 	b	104b90 <gsKit_texture_jpeg+0xe0>
  104bd4:	0000102d 	move	v0,zero

00104bd8 <gsKit_texture_tiff>:
  104bd8:	27bdffa0 	addiu	sp,sp,-96
  104bdc:	ffb10010 	sd	s1,16(sp)
  104be0:	00a0882d 	move	s1,a1
  104be4:	3c050016 	lui	a1,0x16
  104be8:	ffb40040 	sd	s4,64(sp)
  104bec:	24a52208 	addiu	a1,a1,8712
  104bf0:	0080a02d 	move	s4,a0
  104bf4:	00c0202d 	move	a0,a2
  104bf8:	ffb20020 	sd	s2,32(sp)
  104bfc:	ffb00000 	sd	s0,0(sp)
  104c00:	00c0802d 	move	s0,a2
  104c04:	ffbf0050 	sd	ra,80(sp)
  104c08:	0c04d5ca 	jal	135728 <TIFFOpen>
  104c0c:	ffb30030 	sd	s3,48(sp)
  104c10:	1040004f 	beqz	v0,104d50 <gsKit_texture_tiff+0x178>
  104c14:	0040902d 	move	s2,v0
  104c18:	a2200008 	sb	zero,8(s1)
  104c1c:	0040202d 	move	a0,v0
  104c20:	ae200020 	sw	zero,32(s1)
  104c24:	24050100 	li	a1,256
  104c28:	ae20001c 	sw	zero,28(s1)
  104c2c:	0220302d 	move	a2,s1
  104c30:	0c04a404 	jal	129010 <TIFFGetField>
  104c34:	ae200014 	sw	zero,20(s1)
  104c38:	0240202d 	move	a0,s2
  104c3c:	24050101 	li	a1,257
  104c40:	0c04a404 	jal	129010 <TIFFGetField>
  104c44:	26260004 	addiu	a2,s1,4
  104c48:	8e240000 	lw	a0,0(s1)
  104c4c:	8e250004 	lw	a1,4(s1)
  104c50:	0c040fe2 	jal	103f88 <gsKit_texture_size_ee>
  104c54:	92260008 	lbu	a2,8(s1)
  104c58:	8e240000 	lw	a0,0(s1)
  104c5c:	92260008 	lbu	a2,8(s1)
  104c60:	0040802d 	move	s0,v0
  104c64:	0c041006 	jal	104018 <gsKit_texture_size>
  104c68:	8e250004 	lw	a1,4(s1)
  104c6c:	24040080 	li	a0,128
  104c70:	0200282d 	move	a1,s0
  104c74:	0c0429c4 	jal	10a710 <memalign>
  104c78:	0040982d 	move	s3,v0
  104c7c:	8e260004 	lw	a2,4(s1)
  104c80:	ae220010 	sw	v0,16(s1)
  104c84:	0000402d 	move	t0,zero
  104c88:	8e250000 	lw	a1,0(s1)
  104c8c:	0040382d 	move	a3,v0
  104c90:	0c04b896 	jal	12e258 <TIFFReadPS2Image>
  104c94:	0240202d 	move	a0,s2
  104c98:	14400011 	bnez	v0,104ce0 <gsKit_texture_tiff+0x108>
  104c9c:	3c040016 	lui	a0,0x16
  104ca0:	0c042988 	jal	10a620 <printf>
  104ca4:	24842210 	addiu	a0,a0,8720
  104ca8:	0c049d14 	jal	127450 <TIFFClose>
  104cac:	0240202d 	move	a0,s2
  104cb0:	0c042a16 	jal	10a858 <free>
  104cb4:	8e240010 	lw	a0,16(s1)
  104cb8:	2402ffff 	li	v0,-1
  104cbc:	dfbf0050 	ld	ra,80(sp)
  104cc0:	dfb40040 	ld	s4,64(sp)
  104cc4:	dfb30030 	ld	s3,48(sp)
  104cc8:	dfb20020 	ld	s2,32(sp)
  104ccc:	dfb10010 	ld	s1,16(sp)
  104cd0:	dfb00000 	ld	s0,0(sp)
  104cd4:	03e00008 	jr	ra
  104cd8:	27bd0060 	addiu	sp,sp,96
  104cdc:	00000000 	nop
  104ce0:	0c049d14 	jal	127450 <TIFFClose>
  104ce4:	0240202d 	move	a0,s2
  104ce8:	92220024 	lbu	v0,36(s1)
  104cec:	14400014 	bnez	v0,104d40 <gsKit_texture_tiff+0x168>
  104cf0:	0260282d 	move	a1,s3
  104cf4:	0280202d 	move	a0,s4
  104cf8:	0c0400f2 	jal	1003c8 <gsKit_vram_alloc>
  104cfc:	24060001 	li	a2,1
  104d00:	14400007 	bnez	v0,104d20 <gsKit_texture_tiff+0x148>
  104d04:	ae220018 	sw	v0,24(s1)
  104d08:	3c040016 	lui	a0,0x16
  104d0c:	0c042988 	jal	10a620 <printf>
  104d10:	248421a0 	addiu	a0,a0,8608
  104d14:	1000ffe9 	b	104cbc <gsKit_texture_tiff+0xe4>
  104d18:	2402ffff 	li	v0,-1
  104d1c:	00000000 	nop
  104d20:	0280202d 	move	a0,s4
  104d24:	0c041682 	jal	105a08 <gsKit_texture_upload>
  104d28:	0220282d 	move	a1,s1
  104d2c:	0c042a16 	jal	10a858 <free>
  104d30:	8e240010 	lw	a0,16(s1)
  104d34:	1000ffe1 	b	104cbc <gsKit_texture_tiff+0xe4>
  104d38:	0000102d 	move	v0,zero
  104d3c:	00000000 	nop
  104d40:	0c042032 	jal	1080c8 <gsKit_setup_tbw>
  104d44:	0220202d 	move	a0,s1
  104d48:	1000ffdc 	b	104cbc <gsKit_texture_tiff+0xe4>
  104d4c:	0000102d 	move	v0,zero
  104d50:	3c040016 	lui	a0,0x16
  104d54:	0200282d 	move	a1,s0
  104d58:	0c042988 	jal	10a620 <printf>
  104d5c:	24842230 	addiu	a0,a0,8752
  104d60:	1000ffd6 	b	104cbc <gsKit_texture_tiff+0xe4>
  104d64:	2402ffff 	li	v0,-1

00104d68 <gsKit_texture_tga>:
  104d68:	3c040016 	lui	a0,0x16
  104d6c:	27bdfff0 	addiu	sp,sp,-16
  104d70:	ffbf0000 	sd	ra,0(sp)
  104d74:	0c042988 	jal	10a620 <printf>
  104d78:	24842248 	addiu	a0,a0,8776
  104d7c:	dfbf0000 	ld	ra,0(sp)
  104d80:	2402ffff 	li	v0,-1
  104d84:	03e00008 	jr	ra
  104d88:	27bd0010 	addiu	sp,sp,16
  104d8c:	00000000 	nop

00104d90 <gsKit_texture_raw>:
  104d90:	27bdff90 	addiu	sp,sp,-112
  104d94:	ffb50050 	sd	s5,80(sp)
  104d98:	0080a82d 	move	s5,a0
  104d9c:	ffb00000 	sd	s0,0(sp)
  104da0:	00c0202d 	move	a0,a2
  104da4:	00a0802d 	move	s0,a1
  104da8:	ffbf0060 	sd	ra,96(sp)
  104dac:	24050001 	li	a1,1
  104db0:	ffb40040 	sd	s4,64(sp)
  104db4:	ffb30030 	sd	s3,48(sp)
  104db8:	00c0a02d 	move	s4,a2
  104dbc:	ffb20020 	sd	s2,32(sp)
  104dc0:	0c0422c2 	jal	108b08 <fioOpen>
  104dc4:	ffb10010 	sd	s1,16(sp)
  104dc8:	8e050004 	lw	a1,4(s0)
  104dcc:	0040902d 	move	s2,v0
  104dd0:	92060008 	lbu	a2,8(s0)
  104dd4:	0c040fe2 	jal	103f88 <gsKit_texture_size_ee>
  104dd8:	8e040000 	lw	a0,0(s0)
  104ddc:	8e040000 	lw	a0,0(s0)
  104de0:	8e050004 	lw	a1,4(s0)
  104de4:	0040882d 	move	s1,v0
  104de8:	0c041006 	jal	104018 <gsKit_texture_size>
  104dec:	92060008 	lbu	a2,8(s0)
  104df0:	24040080 	li	a0,128
  104df4:	0220282d 	move	a1,s1
  104df8:	0c0429c4 	jal	10a710 <memalign>
  104dfc:	0040982d 	move	s3,v0
  104e00:	92030008 	lbu	v1,8(s0)
  104e04:	2463ffed 	addiu	v1,v1,-19
  104e08:	2c630002 	sltiu	v1,v1,2
  104e0c:	14600003 	bnez	v1,104e1c <gsKit_texture_raw+0x8c>
  104e10:	ae020010 	sw	v0,16(s0)
  104e14:	ae00001c 	sw	zero,28(s0)
  104e18:	ae000014 	sw	zero,20(s0)
  104e1c:	8e050010 	lw	a1,16(s0)
  104e20:	0220302d 	move	a2,s1
  104e24:	0c042314 	jal	108c50 <fioRead>
  104e28:	0240202d 	move	a0,s2
  104e2c:	18400024 	blez	v0,104ec0 <gsKit_texture_raw+0x130>
  104e30:	3c040016 	lui	a0,0x16
  104e34:	0c0422f4 	jal	108bd0 <fioClose>
  104e38:	0240202d 	move	a0,s2
  104e3c:	92030024 	lbu	v1,36(s0)
  104e40:	1460001b 	bnez	v1,104eb0 <gsKit_texture_raw+0x120>
  104e44:	0260282d 	move	a1,s3
  104e48:	02a0202d 	move	a0,s5
  104e4c:	0c0400f2 	jal	1003c8 <gsKit_vram_alloc>
  104e50:	24060001 	li	a2,1
  104e54:	1440000e 	bnez	v0,104e90 <gsKit_texture_raw+0x100>
  104e58:	ae020018 	sw	v0,24(s0)
  104e5c:	3c040016 	lui	a0,0x16
  104e60:	0c042988 	jal	10a620 <printf>
  104e64:	248421a0 	addiu	a0,a0,8608
  104e68:	2402ffff 	li	v0,-1
  104e6c:	dfbf0060 	ld	ra,96(sp)
  104e70:	dfb50050 	ld	s5,80(sp)
  104e74:	dfb40040 	ld	s4,64(sp)
  104e78:	dfb30030 	ld	s3,48(sp)
  104e7c:	dfb20020 	ld	s2,32(sp)
  104e80:	dfb10010 	ld	s1,16(sp)
  104e84:	dfb00000 	ld	s0,0(sp)
  104e88:	03e00008 	jr	ra
  104e8c:	27bd0070 	addiu	sp,sp,112
  104e90:	02a0202d 	move	a0,s5
  104e94:	0c041682 	jal	105a08 <gsKit_texture_upload>
  104e98:	0200282d 	move	a1,s0
  104e9c:	0c042a16 	jal	10a858 <free>
  104ea0:	8e040010 	lw	a0,16(s0)
  104ea4:	1000fff1 	b	104e6c <gsKit_texture_raw+0xdc>
  104ea8:	0000102d 	move	v0,zero
  104eac:	00000000 	nop
  104eb0:	0c042032 	jal	1080c8 <gsKit_setup_tbw>
  104eb4:	0200202d 	move	a0,s0
  104eb8:	1000ffec 	b	104e6c <gsKit_texture_raw+0xdc>
  104ebc:	0000102d 	move	v0,zero
  104ec0:	0280282d 	move	a1,s4
  104ec4:	0c042988 	jal	10a620 <printf>
  104ec8:	24842278 	addiu	a0,a0,8824
  104ecc:	1000ffe7 	b	104e6c <gsKit_texture_raw+0xdc>
  104ed0:	2402ffff 	li	v0,-1
  104ed4:	00000000 	nop

00104ed8 <gsKit_texture_fnt_raw>:
  104ed8:	27bdff90 	addiu	sp,sp,-112
  104edc:	ffb50050 	sd	s5,80(sp)
  104ee0:	0080a82d 	move	s5,a0
  104ee4:	ffb20020 	sd	s2,32(sp)
  104ee8:	00a0902d 	move	s2,a1
  104eec:	ffbf0060 	sd	ra,96(sp)
  104ef0:	ffb40040 	sd	s4,64(sp)
  104ef4:	ffb30030 	sd	s3,48(sp)
  104ef8:	ffb10010 	sd	s1,16(sp)
  104efc:	ffb00000 	sd	s0,0(sp)
  104f00:	8cb30010 	lw	s3,16(a1)
  104f04:	8ca40018 	lw	a0,24(a1)
  104f08:	8e620004 	lw	v0,4(s3)
  104f0c:	ac820000 	sw	v0,0(a0)
  104f10:	8e630008 	lw	v1,8(s3)
  104f14:	ac830004 	sw	v1,4(a0)
  104f18:	9262000c 	lbu	v0,12(s3)
  104f1c:	a0820008 	sb	v0,8(a0)
  104f20:	8ca40018 	lw	a0,24(a1)
  104f24:	90820008 	lbu	v0,8(a0)
  104f28:	2442ffed 	addiu	v0,v0,-19
  104f2c:	2c420002 	sltiu	v0,v0,2
  104f30:	14400003 	bnez	v0,104f40 <gsKit_texture_fnt_raw+0x68>
  104f34:	ac800020 	sw	zero,32(a0)
  104f38:	ac80001c 	sw	zero,28(a0)
  104f3c:	ac800014 	sw	zero,20(a0)
  104f40:	8e620010 	lw	v0,16(s3)
  104f44:	ae420058 	sw	v0,88(s2)
  104f48:	8e630014 	lw	v1,20(s3)
  104f4c:	ae43005c 	sw	v1,92(s2)
  104f50:	8e620018 	lw	v0,24(s3)
  104f54:	ae420050 	sw	v0,80(s2)
  104f58:	8e63001c 	lw	v1,28(s3)
  104f5c:	ae430054 	sw	v1,84(s2)
  104f60:	90860008 	lbu	a2,8(a0)
  104f64:	8c850004 	lw	a1,4(a0)
  104f68:	0c040fe2 	jal	103f88 <gsKit_texture_size_ee>
  104f6c:	8c840000 	lw	a0,0(a0)
  104f70:	0040a02d 	move	s4,v0
  104f74:	8e420018 	lw	v0,24(s2)
  104f78:	90460008 	lbu	a2,8(v0)
  104f7c:	8c450004 	lw	a1,4(v0)
  104f80:	0c041006 	jal	104018 <gsKit_texture_size>
  104f84:	8c440000 	lw	a0,0(v0)
  104f88:	24040080 	li	a0,128
  104f8c:	8e500018 	lw	s0,24(s2)
  104f90:	0280282d 	move	a1,s4
  104f94:	0c0429c4 	jal	10a710 <memalign>
  104f98:	0040882d 	move	s1,v0
  104f9c:	ae020010 	sw	v0,16(s0)
  104fa0:	24060001 	li	a2,1
  104fa4:	8e500018 	lw	s0,24(s2)
  104fa8:	0220282d 	move	a1,s1
  104fac:	0c0400f2 	jal	1003c8 <gsKit_vram_alloc>
  104fb0:	02a0202d 	move	a0,s5
  104fb4:	8e430018 	lw	v1,24(s2)
  104fb8:	ae020018 	sw	v0,24(s0)
  104fbc:	8c620018 	lw	v0,24(v1)
  104fc0:	5440000e 	bnezl	v0,104ffc <gsKit_texture_fnt_raw+0x124>
  104fc4:	8c640010 	lw	a0,16(v1)
  104fc8:	3c040016 	lui	a0,0x16
  104fcc:	0c042988 	jal	10a620 <printf>
  104fd0:	248421a0 	addiu	a0,a0,8608
  104fd4:	2402ffff 	li	v0,-1
  104fd8:	dfbf0060 	ld	ra,96(sp)
  104fdc:	dfb50050 	ld	s5,80(sp)
  104fe0:	dfb40040 	ld	s4,64(sp)
  104fe4:	dfb30030 	ld	s3,48(sp)
  104fe8:	dfb20020 	ld	s2,32(sp)
  104fec:	dfb10010 	ld	s1,16(sp)
  104ff0:	dfb00000 	ld	s0,0(sp)
  104ff4:	03e00008 	jr	ra
  104ff8:	27bd0070 	addiu	sp,sp,112
  104ffc:	26650120 	addiu	a1,s3,288
  105000:	0c04226a 	jal	1089a8 <memcpy>
  105004:	0280302d 	move	a2,s4
  105008:	8e440018 	lw	a0,24(s2)
  10500c:	90850008 	lbu	a1,8(a0)
  105010:	54a00024 	bnezl	a1,1050a4 <gsKit_texture_fnt_raw+0x1cc>
  105014:	3c040016 	lui	a0,0x16
  105018:	26830003 	addiu	v1,s4,3
  10501c:	2a820000 	slti	v0,s4,0
  105020:	0062a00b 	movn	s4,v1,v0
  105024:	3c06ff00 	lui	a2,0xff00
  105028:	8c870010 	lw	a3,16(a0)
  10502c:	00142883 	sra	a1,s4,0x2
  105030:	0000402d 	move	t0,zero
  105034:	34c6ffff 	ori	a2,a2,0xffff
  105038:	3c0900ff 	lui	t1,0xff
  10503c:	3c0a8000 	lui	t2,0x8000
  105040:	0105102a 	slt	v0,t0,a1
  105044:	50400010 	beqzl	v0,105088 <gsKit_texture_fnt_raw+0x1b0>
  105048:	8e450018 	lw	a1,24(s2)
  10504c:	8ce20000 	lw	v0,0(a3)
  105050:	1046000b 	beq	v0,a2,105080 <gsKit_texture_fnt_raw+0x1a8>
  105054:	00491824 	and	v1,v0,t1
  105058:	00031402 	srl	v0,v1,0x10
  10505c:	00021a00 	sll	v1,v0,0x8
  105060:	00022400 	sll	a0,v0,0x10
  105064:	00431025 	or	v0,v0,v1
  105068:	00441025 	or	v0,v0,a0
  10506c:	004a1025 	or	v0,v0,t2
  105070:	ace20000 	sw	v0,0(a3)
  105074:	24e70004 	addiu	a3,a3,4
  105078:	1000fff1 	b	105040 <gsKit_texture_fnt_raw+0x168>
  10507c:	25080001 	addiu	t0,t0,1
  105080:	1000fffc 	b	105074 <gsKit_texture_fnt_raw+0x19c>
  105084:	ace00000 	sw	zero,0(a3)
  105088:	0c041682 	jal	105a08 <gsKit_texture_upload>
  10508c:	02a0202d 	move	a0,s5
  105090:	8e420018 	lw	v0,24(s2)
  105094:	0c042a16 	jal	10a858 <free>
  105098:	8c440010 	lw	a0,16(v0)
  10509c:	1000ffce 	b	104fd8 <gsKit_texture_fnt_raw+0x100>
  1050a0:	0000102d 	move	v0,zero
  1050a4:	0c042988 	jal	10a620 <printf>
  1050a8:	24842298 	addiu	a0,a0,8856
  1050ac:	1000ffda 	b	105018 <gsKit_texture_fnt_raw+0x140>
  1050b0:	8e440018 	lw	a0,24(s2)
  1050b4:	00000000 	nop

001050b8 <gsKit_texture_fnt>:
  1050b8:	27bdff90 	addiu	sp,sp,-112
  1050bc:	ffbf0060 	sd	ra,96(sp)
  1050c0:	ffb50050 	sd	s5,80(sp)
  1050c4:	0080a82d 	move	s5,a0
  1050c8:	ffb30030 	sd	s3,48(sp)
  1050cc:	ffb20020 	sd	s2,32(sp)
  1050d0:	00a0902d 	move	s2,a1
  1050d4:	ffb40040 	sd	s4,64(sp)
  1050d8:	ffb10010 	sd	s1,16(sp)
  1050dc:	ffb00000 	sd	s0,0(sp)
  1050e0:	8ca40000 	lw	a0,0(a1)
  1050e4:	0c0422c2 	jal	108b08 <fioOpen>
  1050e8:	24050001 	li	a1,1
  1050ec:	24050004 	li	a1,4
  1050f0:	0040202d 	move	a0,v0
  1050f4:	0000302d 	move	a2,zero
  1050f8:	0c04235a 	jal	108d68 <fioLseek>
  1050fc:	0040982d 	move	s3,v0
  105100:	8e450018 	lw	a1,24(s2)
  105104:	0260202d 	move	a0,s3
  105108:	0c042314 	jal	108c50 <fioRead>
  10510c:	24060004 	li	a2,4
  105110:	18400081 	blez	v0,105318 <gsKit_texture_fnt+0x260>
  105114:	24060004 	li	a2,4
  105118:	8e450018 	lw	a1,24(s2)
  10511c:	0260202d 	move	a0,s3
  105120:	0c042314 	jal	108c50 <fioRead>
  105124:	24a50004 	addiu	a1,a1,4
  105128:	1840007b 	blez	v0,105318 <gsKit_texture_fnt+0x260>
  10512c:	24060004 	li	a2,4
  105130:	8e450018 	lw	a1,24(s2)
  105134:	0260202d 	move	a0,s3
  105138:	0c042314 	jal	108c50 <fioRead>
  10513c:	24a50008 	addiu	a1,a1,8
  105140:	18400075 	blez	v0,105318 <gsKit_texture_fnt+0x260>
  105144:	26450058 	addiu	a1,s2,88
  105148:	0260202d 	move	a0,s3
  10514c:	0c042314 	jal	108c50 <fioRead>
  105150:	24060004 	li	a2,4
  105154:	18400070 	blez	v0,105318 <gsKit_texture_fnt+0x260>
  105158:	2645005c 	addiu	a1,s2,92
  10515c:	0260202d 	move	a0,s3
  105160:	0c042314 	jal	108c50 <fioRead>
  105164:	24060004 	li	a2,4
  105168:	1840006b 	blez	v0,105318 <gsKit_texture_fnt+0x260>
  10516c:	26450050 	addiu	a1,s2,80
  105170:	0260202d 	move	a0,s3
  105174:	0c042314 	jal	108c50 <fioRead>
  105178:	24060004 	li	a2,4
  10517c:	18400066 	blez	v0,105318 <gsKit_texture_fnt+0x260>
  105180:	26450054 	addiu	a1,s2,84
  105184:	0260202d 	move	a0,s3
  105188:	0c042314 	jal	108c50 <fioRead>
  10518c:	24060004 	li	a2,4
  105190:	18400061 	blez	v0,105318 <gsKit_texture_fnt+0x260>
  105194:	24050120 	li	a1,288
  105198:	0260202d 	move	a0,s3
  10519c:	0c04235a 	jal	108d68 <fioLseek>
  1051a0:	0000302d 	move	a2,zero
  1051a4:	8e430018 	lw	v1,24(s2)
  1051a8:	90660008 	lbu	a2,8(v1)
  1051ac:	8c650004 	lw	a1,4(v1)
  1051b0:	8c640000 	lw	a0,0(v1)
  1051b4:	0c040fe2 	jal	103f88 <gsKit_texture_size_ee>
  1051b8:	ac600020 	sw	zero,32(v1)
  1051bc:	0040a02d 	move	s4,v0
  1051c0:	8e420018 	lw	v0,24(s2)
  1051c4:	90460008 	lbu	a2,8(v0)
  1051c8:	8c450004 	lw	a1,4(v0)
  1051cc:	0c041006 	jal	104018 <gsKit_texture_size>
  1051d0:	8c440000 	lw	a0,0(v0)
  1051d4:	24040080 	li	a0,128
  1051d8:	8e500018 	lw	s0,24(s2)
  1051dc:	0280282d 	move	a1,s4
  1051e0:	0c0429c4 	jal	10a710 <memalign>
  1051e4:	0040882d 	move	s1,v0
  1051e8:	ae020010 	sw	v0,16(s0)
  1051ec:	24060001 	li	a2,1
  1051f0:	8e500018 	lw	s0,24(s2)
  1051f4:	0220282d 	move	a1,s1
  1051f8:	0c0400f2 	jal	1003c8 <gsKit_vram_alloc>
  1051fc:	02a0202d 	move	a0,s5
  105200:	8e430018 	lw	v1,24(s2)
  105204:	ae020018 	sw	v0,24(s0)
  105208:	8c620018 	lw	v0,24(v1)
  10520c:	5440000e 	bnezl	v0,105248 <gsKit_texture_fnt+0x190>
  105210:	8c650010 	lw	a1,16(v1)
  105214:	3c040016 	lui	a0,0x16
  105218:	0c042988 	jal	10a620 <printf>
  10521c:	248421a0 	addiu	a0,a0,8608
  105220:	2402ffff 	li	v0,-1
  105224:	dfbf0060 	ld	ra,96(sp)
  105228:	dfb50050 	ld	s5,80(sp)
  10522c:	dfb40040 	ld	s4,64(sp)
  105230:	dfb30030 	ld	s3,48(sp)
  105234:	dfb20020 	ld	s2,32(sp)
  105238:	dfb10010 	ld	s1,16(sp)
  10523c:	dfb00000 	ld	s0,0(sp)
  105240:	03e00008 	jr	ra
  105244:	27bd0070 	addiu	sp,sp,112
  105248:	0260202d 	move	a0,s3
  10524c:	0c042314 	jal	108c50 <fioRead>
  105250:	0280302d 	move	a2,s4
  105254:	18400031 	blez	v0,10531c <gsKit_texture_fnt+0x264>
  105258:	3c040016 	lui	a0,0x16
  10525c:	0c0422f4 	jal	108bd0 <fioClose>
  105260:	0260202d 	move	a0,s3
  105264:	8e440018 	lw	a0,24(s2)
  105268:	90850008 	lbu	a1,8(a0)
  10526c:	54a00025 	bnezl	a1,105304 <gsKit_texture_fnt+0x24c>
  105270:	3c040016 	lui	a0,0x16
  105274:	26830003 	addiu	v1,s4,3
  105278:	2a820000 	slti	v0,s4,0
  10527c:	0062a00b 	movn	s4,v1,v0
  105280:	3c06ff00 	lui	a2,0xff00
  105284:	8c870010 	lw	a3,16(a0)
  105288:	00142883 	sra	a1,s4,0x2
  10528c:	0000402d 	move	t0,zero
  105290:	34c6ffff 	ori	a2,a2,0xffff
  105294:	3c0900ff 	lui	t1,0xff
  105298:	3c0a8000 	lui	t2,0x8000
  10529c:	00000000 	nop
  1052a0:	0105102a 	slt	v0,t0,a1
  1052a4:	50400010 	beqzl	v0,1052e8 <gsKit_texture_fnt+0x230>
  1052a8:	8e450018 	lw	a1,24(s2)
  1052ac:	8ce20000 	lw	v0,0(a3)
  1052b0:	1046000b 	beq	v0,a2,1052e0 <gsKit_texture_fnt+0x228>
  1052b4:	00491824 	and	v1,v0,t1
  1052b8:	00031402 	srl	v0,v1,0x10
  1052bc:	00021a00 	sll	v1,v0,0x8
  1052c0:	00022400 	sll	a0,v0,0x10
  1052c4:	00431025 	or	v0,v0,v1
  1052c8:	00441025 	or	v0,v0,a0
  1052cc:	004a1025 	or	v0,v0,t2
  1052d0:	ace20000 	sw	v0,0(a3)
  1052d4:	24e70004 	addiu	a3,a3,4
  1052d8:	1000fff1 	b	1052a0 <gsKit_texture_fnt+0x1e8>
  1052dc:	25080001 	addiu	t0,t0,1
  1052e0:	1000fffc 	b	1052d4 <gsKit_texture_fnt+0x21c>
  1052e4:	ace00000 	sw	zero,0(a3)
  1052e8:	0c041682 	jal	105a08 <gsKit_texture_upload>
  1052ec:	02a0202d 	move	a0,s5
  1052f0:	8e420018 	lw	v0,24(s2)
  1052f4:	0c042a16 	jal	10a858 <free>
  1052f8:	8c440010 	lw	a0,16(v0)
  1052fc:	1000ffc9 	b	105224 <gsKit_texture_fnt+0x16c>
  105300:	0000102d 	move	v0,zero
  105304:	0c042988 	jal	10a620 <printf>
  105308:	24842298 	addiu	a0,a0,8856
  10530c:	1000ffd9 	b	105274 <gsKit_texture_fnt+0x1bc>
  105310:	8e440018 	lw	a0,24(s2)
  105314:	00000000 	nop
  105318:	3c040016 	lui	a0,0x16
  10531c:	8e450000 	lw	a1,0(s2)
  105320:	0c042988 	jal	10a620 <printf>
  105324:	248422b0 	addiu	a0,a0,8880
  105328:	1000ffbe 	b	105224 <gsKit_texture_fnt+0x16c>
  10532c:	2402ffff 	li	v0,-1

00105330 <gsKit_texture_send>:
  105330:	27bdff40 	addiu	sp,sp,-192
  105334:	0080102d 	move	v0,a0
  105338:	ffb50070 	sd	s5,112(sp)
  10533c:	314a00ff 	andi	t2,t2,0xff
  105340:	00a0a82d 	move	s5,a1
  105344:	ffb30050 	sd	s3,80(sp)
  105348:	00c0282d 	move	a1,a2
  10534c:	ffb20040 	sd	s2,64(sp)
  105350:	0100982d 	move	s3,t0
  105354:	02a0202d 	move	a0,s5
  105358:	00c0902d 	move	s2,a2
  10535c:	ffbf00b0 	sd	ra,176(sp)
  105360:	0100302d 	move	a2,t0
  105364:	ffbe00a0 	sd	s8,160(sp)
  105368:	ffb60080 	sd	s6,128(sp)
  10536c:	00e0f02d 	move	s8,a3
  105370:	ffb40060 	sd	s4,96(sp)
  105374:	ffb10030 	sd	s1,48(sp)
  105378:	0040882d 	move	s1,v0
  10537c:	ffb00020 	sd	s0,32(sp)
  105380:	afa90000 	sw	t1,0(sp)
  105384:	afaa0010 	sw	t2,16(sp)
  105388:	0c040fe2 	jal	103f88 <gsKit_texture_size_ee>
  10538c:	ffb70090 	sd	s7,144(sp)
  105390:	0260302d 	move	a2,s3
  105394:	02a0202d 	move	a0,s5
  105398:	0240282d 	move	a1,s2
  10539c:	0c040fe2 	jal	103f88 <gsKit_texture_size_ee>
  1053a0:	00028102 	srl	s0,v0,0x4
  1053a4:	26030001 	addiu	v1,s0,1
  1053a8:	3042000f 	andi	v0,v0,0xf
  1053ac:	0062800b 	movn	s0,v1,v0
  1053b0:	24037fff 	li	v1,32767
  1053b4:	24027fff 	li	v0,32767
  1053b8:	0202001a 	div	zero,s0,v0
  1053bc:	50400001 	beqzl	v0,1053c4 <gsKit_texture_send+0x94>
  1053c0:	000001cd 	break	0x7
  1053c4:	24020002 	li	v0,2
  1053c8:	8fa30010 	lw	v1,16(sp)
  1053cc:	0000b010 	mfhi	s6
  1053d0:	0000a012 	mflo	s4
  1053d4:	1062008d 	beq	v1,v0,10560c <gsKit_texture_send+0x2dc>
  1053d8:	00141040 	sll	v0,s4,0x1
  1053dc:	00541021 	addu	v0,v0,s4
  1053e0:	00561021 	addu	v0,v0,s6
  1053e4:	24570009 	addiu	s7,v0,9
  1053e8:	26e30002 	addiu	v1,s7,2
  1053ec:	0016102a 	slt	v0,zero,s6
  1053f0:	0062b80b 	movn	s7,v1,v0
  1053f4:	24040040 	li	a0,64
  1053f8:	0c0429c4 	jal	10a710 <memalign>
  1053fc:	00172900 	sll	a1,s7,0x4
  105400:	0000202d 	move	a0,zero
  105404:	0c042214 	jal	108850 <FlushCache>
  105408:	0040802d 	move	s0,v0
  10540c:	8fa30000 	lw	v1,0(sp)
  105410:	001e2202 	srl	a0,s8,0x8
  105414:	0004203c 	dsll32	a0,a0,0x0
  105418:	0012283c 	dsll32	a1,s2,0x0
  10541c:	0003143c 	dsll32	v0,v1,0x10
  105420:	02a52825 	or	a1,s5,a1
  105424:	00131e3c 	dsll32	v1,s3,0x18
  105428:	00822025 	or	a0,a0,v0
  10542c:	3c021000 	lui	v0,0x1000
  105430:	34420005 	ori	v0,v0,0x5
  105434:	00832025 	or	a0,a0,v1
  105438:	fe020000 	sd	v0,0(s0)
  10543c:	3c031000 	lui	v1,0x1000
  105440:	0003183c 	dsll32	v1,v1,0x0
  105444:	34630004 	ori	v1,v1,0x4
  105448:	2402000e 	li	v0,14
  10544c:	fe030010 	sd	v1,16(s0)
  105450:	fe020018 	sd	v0,24(s0)
  105454:	24030051 	li	v1,81
  105458:	24020050 	li	v0,80
  10545c:	fe030038 	sd	v1,56(s0)
  105460:	fe020028 	sd	v0,40(s0)
  105464:	24030053 	li	v1,83
  105468:	24020052 	li	v0,82
  10546c:	268bffff 	addiu	t3,s4,-1
  105470:	260a0060 	addiu	t2,s0,96
  105474:	fe040020 	sd	a0,32(s0)
  105478:	fe050040 	sd	a1,64(s0)
  10547c:	fe020048 	sd	v0,72(s0)
  105480:	fe030058 	sd	v1,88(s0)
  105484:	fe000008 	sd	zero,8(s0)
  105488:	fe000030 	sd	zero,48(s0)
  10548c:	1a80001c 	blez	s4,105500 <gsKit_texture_send+0x1d0>
  105490:	fe000050 	sd	zero,80(s0)
  105494:	3c040007 	lui	a0,0x7
  105498:	3c071000 	lui	a3,0x1000
  10549c:	34e70001 	ori	a3,a3,0x1
  1054a0:	3c060800 	lui	a2,0x800
  1054a4:	0006303c 	dsll32	a2,a2,0x0
  1054a8:	34c67fff 	ori	a2,a2,0x7fff
  1054ac:	3c053400 	lui	a1,0x3400
  1054b0:	34a57fff 	ori	a1,a1,0x7fff
  1054b4:	3484fff0 	ori	a0,a0,0xfff0
  1054b8:	fd470000 	sd	a3,0(t2)
  1054bc:	0011103c 	dsll32	v0,s1,0x0
  1054c0:	254a0008 	addiu	t2,t2,8
  1054c4:	00451025 	or	v0,v0,a1
  1054c8:	fd400000 	sd	zero,0(t2)
  1054cc:	0160182d 	move	v1,t3
  1054d0:	254a0008 	addiu	t2,t2,8
  1054d4:	02248821 	addu	s1,s1,a0
  1054d8:	fd460000 	sd	a2,0(t2)
  1054dc:	256bffff 	addiu	t3,t3,-1
  1054e0:	254a0008 	addiu	t2,t2,8
  1054e4:	fd400000 	sd	zero,0(t2)
  1054e8:	254a0008 	addiu	t2,t2,8
  1054ec:	fd420000 	sd	v0,0(t2)
  1054f0:	254a0008 	addiu	t2,t2,8
  1054f4:	fd400000 	sd	zero,0(t2)
  1054f8:	1c60ffef 	bgtz	v1,1054b8 <gsKit_texture_send+0x188>
  1054fc:	254a0008 	addiu	t2,t2,8
  105500:	1ac00015 	blez	s6,105558 <gsKit_texture_send+0x228>
  105504:	0011203c 	dsll32	a0,s1,0x0
  105508:	3c021000 	lui	v0,0x1000
  10550c:	34420001 	ori	v0,v0,0x1
  105510:	34038000 	li	v1,0x8000
  105514:	00031b3c 	dsll32	v1,v1,0xc
  105518:	fd420000 	sd	v0,0(t2)
  10551c:	00761825 	or	v1,v1,s6
  105520:	254a0008 	addiu	t2,t2,8
  105524:	3c023400 	lui	v0,0x3400
  105528:	fd400000 	sd	zero,0(t2)
  10552c:	02c21025 	or	v0,s6,v0
  105530:	254a0008 	addiu	t2,t2,8
  105534:	fd430000 	sd	v1,0(t2)
  105538:	00441025 	or	v0,v0,a0
  10553c:	254a0008 	addiu	t2,t2,8
  105540:	fd400000 	sd	zero,0(t2)
  105544:	254a0008 	addiu	t2,t2,8
  105548:	fd420000 	sd	v0,0(t2)
  10554c:	254a0008 	addiu	t2,t2,8
  105550:	fd400000 	sd	zero,0(t2)
  105554:	254a0008 	addiu	t2,t2,8
  105558:	8fa30010 	lw	v1,16(sp)
  10555c:	24020002 	li	v0,2
  105560:	10620027 	beq	v1,v0,105600 <gsKit_texture_send+0x2d0>
  105564:	3c027000 	lui	v0,0x7000
  105568:	3c027000 	lui	v0,0x7000
  10556c:	34420002 	ori	v0,v0,0x2
  105570:	fd420000 	sd	v0,0(t2)
  105574:	3c021000 	lui	v0,0x1000
  105578:	0002103c 	dsll32	v0,v0,0x0
  10557c:	34428001 	ori	v0,v0,0x8001
  105580:	254a0008 	addiu	t2,t2,8
  105584:	fd400000 	sd	zero,0(t2)
  105588:	254a0008 	addiu	t2,t2,8
  10558c:	fd420000 	sd	v0,0(t2)
  105590:	2402000e 	li	v0,14
  105594:	254a0008 	addiu	t2,t2,8
  105598:	fd420000 	sd	v0,0(t2)
  10559c:	2402003f 	li	v0,63
  1055a0:	254a0008 	addiu	t2,t2,8
  1055a4:	fd420000 	sd	v0,0(t2)
  1055a8:	fd400008 	sd	zero,8(t2)
  1055ac:	24040002 	li	a0,2
  1055b0:	0c04204a 	jal	108128 <dmaKit_wait>
  1055b4:	0000282d 	move	a1,zero
  1055b8:	0200282d 	move	a1,s0
  1055bc:	02e0302d 	move	a2,s7
  1055c0:	0c042104 	jal	108410 <dmaKit_send_chain>
  1055c4:	24040002 	li	a0,2
  1055c8:	0c042a16 	jal	10a858 <free>
  1055cc:	0200202d 	move	a0,s0
  1055d0:	dfb00020 	ld	s0,32(sp)
  1055d4:	dfbf00b0 	ld	ra,176(sp)
  1055d8:	dfbe00a0 	ld	s8,160(sp)
  1055dc:	dfb70090 	ld	s7,144(sp)
  1055e0:	dfb60080 	ld	s6,128(sp)
  1055e4:	dfb50070 	ld	s5,112(sp)
  1055e8:	dfb40060 	ld	s4,96(sp)
  1055ec:	dfb30050 	ld	s3,80(sp)
  1055f0:	dfb20040 	ld	s2,64(sp)
  1055f4:	dfb10030 	ld	s1,48(sp)
  1055f8:	03e00008 	jr	ra
  1055fc:	27bd00c0 	addiu	sp,sp,192
  105600:	fd400008 	sd	zero,8(t2)
  105604:	1000ffe9 	b	1055ac <gsKit_texture_send+0x27c>
  105608:	fd420000 	sd	v0,0(t2)
  10560c:	00541021 	addu	v0,v0,s4
  105610:	00561021 	addu	v0,v0,s6
  105614:	1000ff74 	b	1053e8 <gsKit_texture_send+0xb8>
  105618:	24570007 	addiu	s7,v0,7
  10561c:	00000000 	nop

00105620 <gsKit_texture_send_inline>:
  105620:	27bdff60 	addiu	sp,sp,-160
  105624:	ffb50050 	sd	s5,80(sp)
  105628:	0080a82d 	move	s5,a0
  10562c:	ffb40040 	sd	s4,64(sp)
  105630:	00c0202d 	move	a0,a2
  105634:	ffb30030 	sd	s3,48(sp)
  105638:	00c0a02d 	move	s4,a2
  10563c:	00e0982d 	move	s3,a3
  105640:	ffb20020 	sd	s2,32(sp)
  105644:	0120302d 	move	a2,t1
  105648:	ffb10010 	sd	s1,16(sp)
  10564c:	0120902d 	move	s2,t1
  105650:	00a0882d 	move	s1,a1
  105654:	00e0282d 	move	a1,a3
  105658:	ffbf0090 	sd	ra,144(sp)
  10565c:	ffbe0080 	sd	s8,128(sp)
  105660:	317e00ff 	andi	s8,t3,0xff
  105664:	ffb70070 	sd	s7,112(sp)
  105668:	0140b82d 	move	s7,t2
  10566c:	ffb60060 	sd	s6,96(sp)
  105670:	0100b02d 	move	s6,t0
  105674:	0c040fe2 	jal	103f88 <gsKit_texture_size_ee>
  105678:	ffb00000 	sd	s0,0(sp)
  10567c:	0240302d 	move	a2,s2
  105680:	0280202d 	move	a0,s4
  105684:	0260282d 	move	a1,s3
  105688:	0c040fe2 	jal	103f88 <gsKit_texture_size_ee>
  10568c:	00028102 	srl	s0,v0,0x4
  105690:	2418000e 	li	t8,14
  105694:	3042000f 	andi	v0,v0,0xf
  105698:	26040001 	addiu	a0,s0,1
  10569c:	0082800b 	movn	s0,a0,v0
  1056a0:	24057fff 	li	a1,32767
  1056a4:	0205001a 	div	zero,s0,a1
  1056a8:	24037fff 	li	v1,32767
  1056ac:	50a00001 	beqzl	a1,1056b4 <gsKit_texture_send_inline+0x94>
  1056b0:	000001cd 	break	0x7
  1056b4:	3402fffe 	li	v0,0xfffe
  1056b8:	8ea60050 	lw	a2,80(s5)
  1056bc:	8cc40024 	lw	a0,36(a2)
  1056c0:	24830004 	addiu	v1,a0,4
  1056c4:	0043102b 	sltu	v0,v0,v1
  1056c8:	00007810 	mfhi	t7
  1056cc:	00008012 	mflo	s0
  1056d0:	1040000c 	beqz	v0,105704 <gsKit_texture_send_inline+0xe4>
  1056d4:	00c0702d 	move	t6,a2
  1056d8:	3c021000 	lui	v0,0x1000
  1056dc:	8cc50008 	lw	a1,8(a2)
  1056e0:	00821025 	or	v0,a0,v0
  1056e4:	acc00024 	sw	zero,36(a2)
  1056e8:	8cc40020 	lw	a0,32(a2)
  1056ec:	0002103c 	dsll32	v0,v0,0x0
  1056f0:	24a30010 	addiu	v1,a1,16
  1056f4:	0002103e 	dsrl32	v0,v0,0x0
  1056f8:	acc30008 	sw	v1,8(a2)
  1056fc:	fc820000 	sd	v0,0(a0)
  105700:	acc50020 	sw	a1,32(a2)
  105704:	8cc30014 	lw	v1,20(a2)
  105708:	2402000b 	li	v0,11
  10570c:	50620009 	beql	v1,v0,105734 <gsKit_texture_send_inline+0x114>
  105710:	8ea70050 	lw	a3,80(s5)
  105714:	50780007 	beql	v1,t8,105734 <gsKit_texture_send_inline+0x114>
  105718:	8ea70050 	lw	a3,80(s5)
  10571c:	8cc20018 	lw	v0,24(a2)
  105720:	8cc3001c 	lw	v1,28(a2)
  105724:	dc440000 	ld	a0,0(v0)
  105728:	00641825 	or	v1,v1,a0
  10572c:	fc430000 	sd	v1,0(v0)
  105730:	8ea70050 	lw	a3,80(s5)
  105734:	00161a02 	srl	v1,s6,0x8
  105738:	0017143c 	dsll32	v0,s7,0x10
  10573c:	0003183c 	dsll32	v1,v1,0x0
  105740:	8ce80008 	lw	t0,8(a3)
  105744:	00621825 	or	v1,v1,v0
  105748:	3c021000 	lui	v0,0x1000
  10574c:	0002103c 	dsll32	v0,v0,0x0
  105750:	34428004 	ori	v0,v0,0x8004
  105754:	0012263c 	dsll32	a0,s2,0x18
  105758:	fd020000 	sd	v0,0(t0)
  10575c:	250c0008 	addiu	t4,t0,8
  105760:	2402000e 	li	v0,14
  105764:	00641825 	or	v1,v1,a0
  105768:	fd820000 	sd	v0,0(t4)
  10576c:	00102040 	sll	a0,s0,0x1
  105770:	258c0008 	addiu	t4,t4,8
  105774:	24020050 	li	v0,80
  105778:	fd830000 	sd	v1,0(t4)
  10577c:	00902021 	addu	a0,a0,s0
  105780:	258c0008 	addiu	t4,t4,8
  105784:	8ce90024 	lw	t1,36(a3)
  105788:	fd820000 	sd	v0,0(t4)
  10578c:	0080302d 	move	a2,a0
  105790:	258c0008 	addiu	t4,t4,8
  105794:	24020051 	li	v0,81
  105798:	fd800000 	sd	zero,0(t4)
  10579c:	24840003 	addiu	a0,a0,3
  1057a0:	258c0008 	addiu	t4,t4,8
  1057a4:	0013283c 	dsll32	a1,s3,0x0
  1057a8:	fd820000 	sd	v0,0(t4)
  1057ac:	008f300b 	movn	a2,a0,t7
  1057b0:	02852825 	or	a1,s4,a1
  1057b4:	258c0008 	addiu	t4,t4,8
  1057b8:	25290005 	addiu	t1,t1,5
  1057bc:	3c031000 	lui	v1,0x1000
  1057c0:	fd850000 	sd	a1,0(t4)
  1057c4:	25080050 	addiu	t0,t0,80
  1057c8:	258c0008 	addiu	t4,t4,8
  1057cc:	24020052 	li	v0,82
  1057d0:	01231825 	or	v1,t1,v1
  1057d4:	00063100 	sll	a2,a2,0x4
  1057d8:	fd820000 	sd	v0,0(t4)
  1057dc:	01063021 	addu	a2,t0,a2
  1057e0:	258c0008 	addiu	t4,t4,8
  1057e4:	8dc50008 	lw	a1,8(t6)
  1057e8:	8ceb0020 	lw	t3,32(a3)
  1057ec:	24020053 	li	v0,83
  1057f0:	0003183c 	dsll32	v1,v1,0x0
  1057f4:	fd820008 	sd	v0,8(t4)
  1057f8:	0003183e 	dsrl32	v1,v1,0x0
  1057fc:	24ca0010 	addiu	t2,a2,16
  105800:	2402000b 	li	v0,11
  105804:	fd800000 	sd	zero,0(t4)
  105808:	adc0001c 	sw	zero,28(t6)
  10580c:	00e0682d 	move	t5,a3
  105810:	2604ffff 	addiu	a0,s0,-1
  105814:	adc50018 	sw	a1,24(t6)
  105818:	ace20014 	sw	v0,20(a3)
  10581c:	0100602d 	move	t4,t0
  105820:	fd630000 	sd	v1,0(t3)
  105824:	acea0008 	sw	t2,8(a3)
  105828:	ace00024 	sw	zero,36(a3)
  10582c:	ace0001c 	sw	zero,28(a3)
  105830:	1a00001d 	blez	s0,1058a8 <gsKit_texture_send_inline+0x288>
  105834:	ace60020 	sw	a2,32(a3)
  105838:	3c050007 	lui	a1,0x7
  10583c:	3c081000 	lui	t0,0x1000
  105840:	35080001 	ori	t0,t0,0x1
  105844:	3c070800 	lui	a3,0x800
  105848:	0007383c 	dsll32	a3,a3,0x0
  10584c:	34e77fff 	ori	a3,a3,0x7fff
  105850:	3c063000 	lui	a2,0x3000
  105854:	34c67fff 	ori	a2,a2,0x7fff
  105858:	34a5fff0 	ori	a1,a1,0xfff0
  10585c:	00000000 	nop
  105860:	fd880000 	sd	t0,0(t4)
  105864:	0011103c 	dsll32	v0,s1,0x0
  105868:	258c0008 	addiu	t4,t4,8
  10586c:	00461025 	or	v0,v0,a2
  105870:	fd800000 	sd	zero,0(t4)
  105874:	0080182d 	move	v1,a0
  105878:	258c0008 	addiu	t4,t4,8
  10587c:	02258821 	addu	s1,s1,a1
  105880:	fd870000 	sd	a3,0(t4)
  105884:	2484ffff 	addiu	a0,a0,-1
  105888:	258c0008 	addiu	t4,t4,8
  10588c:	fd800000 	sd	zero,0(t4)
  105890:	258c0008 	addiu	t4,t4,8
  105894:	fd820000 	sd	v0,0(t4)
  105898:	258c0008 	addiu	t4,t4,8
  10589c:	fd800000 	sd	zero,0(t4)
  1058a0:	1c60ffef 	bgtz	v1,105860 <gsKit_texture_send_inline+0x240>
  1058a4:	258c0008 	addiu	t4,t4,8
  1058a8:	19e00013 	blez	t7,1058f8 <gsKit_texture_send_inline+0x2d8>
  1058ac:	0011203c 	dsll32	a0,s1,0x0
  1058b0:	3c021000 	lui	v0,0x1000
  1058b4:	34420001 	ori	v0,v0,0x1
  1058b8:	34038000 	li	v1,0x8000
  1058bc:	00031b3c 	dsll32	v1,v1,0xc
  1058c0:	fd820000 	sd	v0,0(t4)
  1058c4:	006f1825 	or	v1,v1,t7
  1058c8:	258c0008 	addiu	t4,t4,8
  1058cc:	3c023000 	lui	v0,0x3000
  1058d0:	fd800000 	sd	zero,0(t4)
  1058d4:	01e21025 	or	v0,t7,v0
  1058d8:	258c0008 	addiu	t4,t4,8
  1058dc:	fd830000 	sd	v1,0(t4)
  1058e0:	00441025 	or	v0,v0,a0
  1058e4:	258c0008 	addiu	t4,t4,8
  1058e8:	fd800000 	sd	zero,0(t4)
  1058ec:	258c0008 	addiu	t4,t4,8
  1058f0:	fd820000 	sd	v0,0(t4)
  1058f4:	fd800008 	sd	zero,8(t4)
  1058f8:	24020002 	li	v0,2
  1058fc:	13c20036 	beq	s8,v0,1059d8 <gsKit_texture_send_inline+0x3b8>
  105900:	3402fffe 	li	v0,0xfffe
  105904:	8ea60050 	lw	a2,80(s5)
  105908:	8cc40024 	lw	a0,36(a2)
  10590c:	24830001 	addiu	v1,a0,1
  105910:	0043102b 	sltu	v0,v0,v1
  105914:	1040000c 	beqz	v0,105948 <gsKit_texture_send_inline+0x328>
  105918:	2408000e 	li	t0,14
  10591c:	3c021000 	lui	v0,0x1000
  105920:	8cc50008 	lw	a1,8(a2)
  105924:	00821025 	or	v0,a0,v0
  105928:	acc00024 	sw	zero,36(a2)
  10592c:	8cc40020 	lw	a0,32(a2)
  105930:	0002103c 	dsll32	v0,v0,0x0
  105934:	24a30010 	addiu	v1,a1,16
  105938:	0002103e 	dsrl32	v0,v0,0x0
  10593c:	acc30008 	sw	v1,8(a2)
  105940:	fc820000 	sd	v0,0(a0)
  105944:	acc50020 	sw	a1,32(a2)
  105948:	8da30014 	lw	v1,20(t5)
  10594c:	2402000b 	li	v0,11
  105950:	50620009 	beql	v1,v0,105978 <gsKit_texture_send_inline+0x358>
  105954:	8ea30050 	lw	v1,80(s5)
  105958:	50680007 	beql	v1,t0,105978 <gsKit_texture_send_inline+0x358>
  10595c:	8ea30050 	lw	v1,80(s5)
  105960:	8da20018 	lw	v0,24(t5)
  105964:	8da3001c 	lw	v1,28(t5)
  105968:	dc440000 	ld	a0,0(v0)
  10596c:	00641825 	or	v1,v1,a0
  105970:	fc430000 	sd	v1,0(v0)
  105974:	8ea30050 	lw	v1,80(s5)
  105978:	3c021000 	lui	v0,0x1000
  10597c:	0002103c 	dsll32	v0,v0,0x0
  105980:	34428001 	ori	v0,v0,0x8001
  105984:	ada0001c 	sw	zero,28(t5)
  105988:	8c640008 	lw	a0,8(v1)
  10598c:	8c65001c 	lw	a1,28(v1)
  105990:	8c660024 	lw	a2,36(v1)
  105994:	248c0008 	addiu	t4,a0,8
  105998:	fc820000 	sd	v0,0(a0)
  10599c:	24a50001 	addiu	a1,a1,1
  1059a0:	8da70008 	lw	a3,8(t5)
  1059a4:	2402000e 	li	v0,14
  1059a8:	fd820000 	sd	v0,0(t4)
  1059ac:	24c60002 	addiu	a2,a2,2
  1059b0:	258c0008 	addiu	t4,t4,8
  1059b4:	24840020 	addiu	a0,a0,32
  1059b8:	2402003f 	li	v0,63
  1059bc:	ac640008 	sw	a0,8(v1)
  1059c0:	ada70018 	sw	a3,24(t5)
  1059c4:	ac65001c 	sw	a1,28(v1)
  1059c8:	ac680014 	sw	t0,20(v1)
  1059cc:	ac660024 	sw	a2,36(v1)
  1059d0:	fd820000 	sd	v0,0(t4)
  1059d4:	fd800008 	sd	zero,8(t4)
  1059d8:	dfbf0090 	ld	ra,144(sp)
  1059dc:	dfbe0080 	ld	s8,128(sp)
  1059e0:	dfb70070 	ld	s7,112(sp)
  1059e4:	dfb60060 	ld	s6,96(sp)
  1059e8:	dfb50050 	ld	s5,80(sp)
  1059ec:	dfb40040 	ld	s4,64(sp)
  1059f0:	dfb30030 	ld	s3,48(sp)
  1059f4:	dfb20020 	ld	s2,32(sp)
  1059f8:	dfb10010 	ld	s1,16(sp)
  1059fc:	dfb00000 	ld	s0,0(sp)
  105a00:	03e00008 	jr	ra
  105a04:	27bd00a0 	addiu	sp,sp,160

00105a08 <gsKit_texture_upload>:
  105a08:	27bdffe0 	addiu	sp,sp,-32
  105a0c:	00a0202d 	move	a0,a1
  105a10:	ffb00000 	sd	s0,0(sp)
  105a14:	ffbf0010 	sd	ra,16(sp)
  105a18:	0c042032 	jal	1080c8 <gsKit_setup_tbw>
  105a1c:	00a0802d 	move	s0,a1
  105a20:	92030008 	lbu	v1,8(s0)
  105a24:	24020013 	li	v0,19
  105a28:	24080013 	li	t0,19
  105a2c:	10620020 	beq	v1,v0,105ab0 <gsKit_texture_upload+0xa8>
  105a30:	240a0002 	li	t2,2
  105a34:	24020014 	li	v0,20
  105a38:	1062000f 	beq	v1,v0,105a78 <gsKit_texture_upload+0x70>
  105a3c:	24080014 	li	t0,20
  105a40:	8e09000c 	lw	t1,12(s0)
  105a44:	0060402d 	move	t0,v1
  105a48:	8e040010 	lw	a0,16(s0)
  105a4c:	0000502d 	move	t2,zero
  105a50:	8e050000 	lw	a1,0(s0)
  105a54:	8e060004 	lw	a2,4(s0)
  105a58:	8e070018 	lw	a3,24(s0)
  105a5c:	0c0414cc 	jal	105330 <gsKit_texture_send>
  105a60:	00000000 	nop
  105a64:	dfb00000 	ld	s0,0(sp)
  105a68:	dfbf0010 	ld	ra,16(sp)
  105a6c:	03e00008 	jr	ra
  105a70:	27bd0020 	addiu	sp,sp,32
  105a74:	00000000 	nop
  105a78:	8e050000 	lw	a1,0(s0)
  105a7c:	8e060004 	lw	a2,4(s0)
  105a80:	8e070018 	lw	a3,24(s0)
  105a84:	8e040010 	lw	a0,16(s0)
  105a88:	0c0414cc 	jal	105330 <gsKit_texture_send>
  105a8c:	8e09000c 	lw	t1,12(s0)
  105a90:	24060002 	li	a2,2
  105a94:	92080009 	lbu	t0,9(s0)
  105a98:	240a0001 	li	t2,1
  105a9c:	8e07001c 	lw	a3,28(s0)
  105aa0:	24050008 	li	a1,8
  105aa4:	8e040014 	lw	a0,20(s0)
  105aa8:	1000ffec 	b	105a5c <gsKit_texture_upload+0x54>
  105aac:	24090001 	li	t1,1
  105ab0:	8e050000 	lw	a1,0(s0)
  105ab4:	8e060004 	lw	a2,4(s0)
  105ab8:	8e070018 	lw	a3,24(s0)
  105abc:	8e040010 	lw	a0,16(s0)
  105ac0:	0c0414cc 	jal	105330 <gsKit_texture_send>
  105ac4:	8e09000c 	lw	t1,12(s0)
  105ac8:	24060010 	li	a2,16
  105acc:	92080009 	lbu	t0,9(s0)
  105ad0:	240a0001 	li	t2,1
  105ad4:	8e07001c 	lw	a3,28(s0)
  105ad8:	1000fff2 	b	105aa4 <gsKit_texture_upload+0x9c>
  105adc:	24050010 	li	a1,16

00105ae0 <gsKit_prim_sprite_texture_3d>:
  105ae0:	27bdff40 	addiu	sp,sp,-192
  105ae4:	ffb70080 	sd	s7,128(sp)
  105ae8:	00e0b82d 	move	s7,a3
  105aec:	ffb60070 	sd	s6,112(sp)
  105af0:	00c0b02d 	move	s6,a2
  105af4:	ffb50060 	sd	s5,96(sp)
  105af8:	0100a82d 	move	s5,t0
  105afc:	ffb10020 	sd	s1,32(sp)
  105b00:	0080882d 	move	s1,a0
  105b04:	ffb00010 	sd	s0,16(sp)
  105b08:	00a0802d 	move	s0,a1
  105b0c:	e7be00b4 	swc1	$f30,180(sp)
  105b10:	46009786 	mov.s	$f30,$f18
  105b14:	e7bc00b0 	swc1	$f28,176(sp)
  105b18:	46009f06 	mov.s	$f28,$f19
  105b1c:	e7ba00ac 	swc1	$f26,172(sp)
  105b20:	46006686 	mov.s	$f26,$f12
  105b24:	e7b800a8 	swc1	$f24,168(sp)
  105b28:	46008606 	mov.s	$f24,$f16
  105b2c:	e7b600a4 	swc1	$f22,164(sp)
  105b30:	46006d86 	mov.s	$f22,$f13
  105b34:	e7b400a0 	swc1	$f20,160(sp)
  105b38:	46008d06 	mov.s	$f20,$f17
  105b3c:	ffbf0090 	sd	ra,144(sp)
  105b40:	ffb40050 	sd	s4,80(sp)
  105b44:	ffb30040 	sd	s3,64(sp)
  105b48:	ffb20030 	sd	s2,48(sp)
  105b4c:	e7ae0000 	swc1	$f14,0(sp)
  105b50:	90a50020 	lbu	a1,32(a1)
  105b54:	0c04031e 	jal	100c78 <gsKit_set_texfilter>
  105b58:	e7af0004 	swc1	$f15,4(sp)
  105b5c:	24080001 	li	t0,1
  105b60:	86220004 	lh	v0,4(s1)
  105b64:	104800e0 	beq	v0,t0,105ee8 <gsKit_prim_sprite_texture_3d+0x408>
  105b68:	00000000 	nop
  105b6c:	3c014180 	lui	at,0x4180
  105b70:	44810000 	mtc1	at,$f0
  105b74:	8e220030 	lw	v0,48(s1)
  105b78:	4600c082 	mul.s	$f2,$f24,$f0
  105b7c:	8e060000 	lw	a2,0(s0)
  105b80:	4600d202 	mul.s	$f8,$f26,$f0
  105b84:	4600b102 	mul.s	$f4,$f22,$f0
  105b88:	4600a182 	mul.s	$f6,$f20,$f0
  105b8c:	460042a4 	cvt.w.s	$f10,$f8
  105b90:	44035000 	mfc1	v1,$f10
  105b94:	c7aa0004 	lwc1	$f10,4(sp)
  105b98:	46001224 	cvt.w.s	$f8,$f2
  105b9c:	44044000 	mfc1	a0,$f8
  105ba0:	c7a80000 	lwc1	$f8,0(sp)
  105ba4:	460020a4 	cvt.w.s	$f2,$f4
  105ba8:	44051000 	mfc1	a1,$f2
  105bac:	460030a4 	cvt.w.s	$f2,$f6
  105bb0:	44071000 	mfc1	a3,$f2
  105bb4:	00629021 	addu	s2,v1,v0
  105bb8:	46004102 	mul.s	$f4,$f8,$f0
  105bbc:	0082a021 	addu	s4,a0,v0
  105bc0:	4600f082 	mul.s	$f2,$f30,$f0
  105bc4:	00a27821 	addu	t7,a1,v0
  105bc8:	4600e182 	mul.s	$f6,$f28,$f0
  105bcc:	00e23821 	addu	a3,a3,v0
  105bd0:	46005002 	mul.s	$f0,$f10,$f0
  105bd4:	46002224 	cvt.w.s	$f8,$f4
  105bd8:	44184000 	mfc1	t8,$f8
  105bdc:	46001124 	cvt.w.s	$f4,$f2
  105be0:	44132000 	mfc1	s3,$f4
  105be4:	460000a4 	cvt.w.s	$f2,$f0
  105be8:	440e1000 	mfc1	t6,$f2
  105bec:	46003024 	cvt.w.s	$f0,$f6
  105bf0:	44190000 	mfc1	t9,$f0
  105bf4:	70c01804 	plzcw	v1,a2
  105bf8:	2405001e 	li	a1,30
  105bfc:	8e040004 	lw	a0,4(s0)
  105c00:	00a34823 	subu	t1,a1,v1
  105c04:	01281004 	sllv	v0,t0,t1
  105c08:	0046102b 	sltu	v0,v0,a2
  105c0c:	01224821 	addu	t1,t1,v0
  105c10:	70801804 	plzcw	v1,a0
  105c14:	8e260050 	lw	a2,80(s1)
  105c18:	00a35023 	subu	t2,a1,v1
  105c1c:	01481004 	sllv	v0,t0,t2
  105c20:	240b0004 	li	t3,4
  105c24:	8cc80024 	lw	t0,36(a2)
  105c28:	0044102b 	sltu	v0,v0,a0
  105c2c:	01425021 	addu	t2,t2,v0
  105c30:	240d0040 	li	t5,64
  105c34:	25030004 	addiu	v1,t0,4
  105c38:	3402fffe 	li	v0,0xfffe
  105c3c:	0043102b 	sltu	v0,v0,v1
  105c40:	1040000c 	beqz	v0,105c74 <gsKit_prim_sprite_texture_3d+0x194>
  105c44:	240c1a00 	li	t4,6656
  105c48:	3c021000 	lui	v0,0x1000
  105c4c:	8cc50008 	lw	a1,8(a2)
  105c50:	01021025 	or	v0,t0,v0
  105c54:	8cc40020 	lw	a0,32(a2)
  105c58:	0002103c 	dsll32	v0,v0,0x0
  105c5c:	24a30010 	addiu	v1,a1,16
  105c60:	0002103e 	dsrl32	v0,v0,0x0
  105c64:	acc30008 	sw	v1,8(a2)
  105c68:	fc820000 	sd	v0,0(a0)
  105c6c:	acc00024 	sw	zero,36(a2)
  105c70:	acc50020 	sw	a1,32(a2)
  105c74:	8cc30014 	lw	v1,20(a2)
  105c78:	106c0095 	beq	v1,t4,105ed0 <gsKit_prim_sprite_texture_3d+0x3f0>
  105c7c:	2402000b 	li	v0,11
  105c80:	10620008 	beq	v1,v0,105ca4 <gsKit_prim_sprite_texture_3d+0x1c4>
  105c84:	2402000e 	li	v0,14
  105c88:	50620007 	beql	v1,v0,105ca8 <gsKit_prim_sprite_texture_3d+0x1c8>
  105c8c:	8cc20008 	lw	v0,8(a2)
  105c90:	8cc20018 	lw	v0,24(a2)
  105c94:	8cc3001c 	lw	v1,28(a2)
  105c98:	dc440000 	ld	a0,0(v0)
  105c9c:	00641825 	or	v1,v1,a0
  105ca0:	fc430000 	sd	v1,0(v0)
  105ca4:	8cc20008 	lw	v0,8(a2)
  105ca8:	240b0005 	li	t3,5
  105cac:	acc0001c 	sw	zero,28(a2)
  105cb0:	240d0050 	li	t5,80
  105cb4:	acc20018 	sw	v0,24(a2)
  105cb8:	8cc3001c 	lw	v1,28(a2)
  105cbc:	3c050535 	lui	a1,0x535
  105cc0:	8cc20024 	lw	v0,36(a2)
  105cc4:	34a53100 	ori	a1,a1,0x3100
  105cc8:	24630001 	addiu	v1,v1,1
  105ccc:	accc0014 	sw	t4,20(a2)
  105cd0:	004b1021 	addu	v0,v0,t3
  105cd4:	acc3001c 	sw	v1,28(a2)
  105cd8:	acc20024 	sw	v0,36(a2)
  105cdc:	3c028400 	lui	v0,0x8400
  105ce0:	0002103c 	dsll32	v0,v0,0x0
  105ce4:	34428000 	ori	v0,v0,0x8000
  105ce8:	8cc40008 	lw	a0,8(a2)
  105cec:	8e2c008c 	lw	t4,140(s1)
  105cf0:	fc820000 	sd	v0,0(a0)
  105cf4:	0080402d 	move	t0,a0
  105cf8:	25830006 	addiu	v1,t4,6
  105cfc:	3402f000 	li	v0,0xf000
  105d00:	00021438 	dsll	v0,v0,0x10
  105d04:	00651825 	or	v1,v1,a1
  105d08:	8e0b001c 	lw	t3,28(s0)
  105d0c:	25080008 	addiu	t0,t0,8
  105d10:	008d2021 	addu	a0,a0,t5
  105d14:	00621025 	or	v0,v1,v0
  105d18:	acc40008 	sw	a0,8(a2)
  105d1c:	fd020000 	sd	v0,0(t0)
  105d20:	15600051 	bnez	t3,105e68 <gsKit_prim_sprite_texture_3d+0x388>
  105d24:	25080008 	addiu	t0,t0,8
  105d28:	8e020018 	lw	v0,24(s0)
  105d2c:	0120302d 	move	a2,t1
  105d30:	9e05000c 	lwu	a1,12(s0)
  105d34:	000636b8 	dsll	a2,a2,0x1a
  105d38:	00021202 	srl	v0,v0,0x8
  105d3c:	92030008 	lbu	v1,8(s0)
  105d40:	0002103c 	dsll32	v0,v0,0x0
  105d44:	00052bb8 	dsll	a1,a1,0xe
  105d48:	0002103e 	dsrl32	v0,v0,0x0
  105d4c:	00031d38 	dsll	v1,v1,0x14
  105d50:	00451025 	or	v0,v0,a1
  105d54:	0140202d 	move	a0,t2
  105d58:	00431025 	or	v0,v0,v1
  105d5c:	8e290098 	lw	t1,152(s1)
  105d60:	00461025 	or	v0,v0,a2
  105d64:	92030009 	lbu	v1,9(s0)
  105d68:	000427b8 	dsll	a0,a0,0x1e
  105d6c:	000928bc 	dsll32	a1,t1,0x2
  105d70:	00441025 	or	v0,v0,a0
  105d74:	00031dfc 	dsll32	v1,v1,0x17
  105d78:	00451025 	or	v0,v0,a1
  105d7c:	00431025 	or	v0,v0,v1
  105d80:	fd020000 	sd	v0,0(t0)
  105d84:	0120182d 	move	v1,t1
  105d88:	8e220090 	lw	v0,144(s1)
  105d8c:	000319b8 	dsll	v1,v1,0x6
  105d90:	8e250094 	lw	a1,148(s1)
  105d94:	0180202d 	move	a0,t4
  105d98:	00021178 	dsll	v0,v0,0x5
  105d9c:	00042278 	dsll	a0,a0,0x9
  105da0:	00431025 	or	v0,v0,v1
  105da4:	000529f8 	dsll	a1,a1,0x7
  105da8:	00451025 	or	v0,v0,a1
  105dac:	24030116 	li	v1,278
  105db0:	00441025 	or	v0,v0,a0
  105db4:	25080008 	addiu	t0,t0,8
  105db8:	00431025 	or	v0,v0,v1
  105dbc:	01c0282d 	move	a1,t6
  105dc0:	01e0182d 	move	v1,t7
  105dc4:	fd020000 	sd	v0,0(t0)
  105dc8:	0320202d 	move	a0,t9
  105dcc:	00052c38 	dsll	a1,a1,0x10
  105dd0:	00e0102d 	move	v0,a3
  105dd4:	25080008 	addiu	t0,t0,8
  105dd8:	00031c38 	dsll	v1,v1,0x10
  105ddc:	fd150000 	sd	s5,0(t0)
  105de0:	03052825 	or	a1,t8,a1
  105de4:	0016303c 	dsll32	a2,s6,0x0
  105de8:	02431825 	or	v1,s2,v1
  105dec:	25080008 	addiu	t0,t0,8
  105df0:	00021438 	dsll	v0,v0,0x10
  105df4:	00042438 	dsll	a0,a0,0x10
  105df8:	fd050000 	sd	a1,0(t0)
  105dfc:	02642025 	or	a0,s3,a0
  105e00:	0017283c 	dsll32	a1,s7,0x0
  105e04:	00661825 	or	v1,v1,a2
  105e08:	02821025 	or	v0,s4,v0
  105e0c:	25080008 	addiu	t0,t0,8
  105e10:	dfbf0090 	ld	ra,144(sp)
  105e14:	00451025 	or	v0,v0,a1
  105e18:	dfb70080 	ld	s7,128(sp)
  105e1c:	dfb60070 	ld	s6,112(sp)
  105e20:	dfb50060 	ld	s5,96(sp)
  105e24:	dfb40050 	ld	s4,80(sp)
  105e28:	dfb30040 	ld	s3,64(sp)
  105e2c:	dfb20030 	ld	s2,48(sp)
  105e30:	dfb10020 	ld	s1,32(sp)
  105e34:	dfb00010 	ld	s0,16(sp)
  105e38:	c7be00b4 	lwc1	$f30,180(sp)
  105e3c:	c7bc00b0 	lwc1	$f28,176(sp)
  105e40:	c7ba00ac 	lwc1	$f26,172(sp)
  105e44:	c7b800a8 	lwc1	$f24,168(sp)
  105e48:	c7b600a4 	lwc1	$f22,164(sp)
  105e4c:	c7b400a0 	lwc1	$f20,160(sp)
  105e50:	fd030000 	sd	v1,0(t0)
  105e54:	25080008 	addiu	t0,t0,8
  105e58:	fd020008 	sd	v0,8(t0)
  105e5c:	fd040000 	sd	a0,0(t0)
  105e60:	03e00008 	jr	ra
  105e64:	27bd00c0 	addiu	sp,sp,192
  105e68:	8e020018 	lw	v0,24(s0)
  105e6c:	0120302d 	move	a2,t1
  105e70:	9e05000c 	lwu	a1,12(s0)
  105e74:	000636b8 	dsll	a2,a2,0x1a
  105e78:	00021202 	srl	v0,v0,0x8
  105e7c:	92030008 	lbu	v1,8(s0)
  105e80:	0002103c 	dsll32	v0,v0,0x0
  105e84:	00052bb8 	dsll	a1,a1,0xe
  105e88:	0002103e 	dsrl32	v0,v0,0x0
  105e8c:	00031d38 	dsll	v1,v1,0x14
  105e90:	00451025 	or	v0,v0,a1
  105e94:	0140202d 	move	a0,t2
  105e98:	00431025 	or	v0,v0,v1
  105e9c:	8e290098 	lw	t1,152(s1)
  105ea0:	000427b8 	dsll	a0,a0,0x1e
  105ea4:	00461025 	or	v0,v0,a2
  105ea8:	00441025 	or	v0,v0,a0
  105eac:	000b1a02 	srl	v1,t3,0x8
  105eb0:	000920bc 	dsll32	a0,t1,0x2
  105eb4:	0003197c 	dsll32	v1,v1,0x5
  105eb8:	00441025 	or	v0,v0,a0
  105ebc:	34048000 	li	a0,0x8000
  105ec0:	000423bc 	dsll32	a0,a0,0xe
  105ec4:	00431025 	or	v0,v0,v1
  105ec8:	1000ffad 	b	105d80 <gsKit_prim_sprite_texture_3d+0x2a0>
  105ecc:	00441025 	or	v0,v0,a0
  105ed0:	8cc2001c 	lw	v0,28(a2)
  105ed4:	28427fff 	slti	v0,v0,32767
  105ed8:	5440ff78 	bnezl	v0,105cbc <gsKit_prim_sprite_texture_3d+0x1dc>
  105edc:	8cc3001c 	lw	v1,28(a2)
  105ee0:	1000ff67 	b	105c80 <gsKit_prim_sprite_texture_3d+0x1a0>
  105ee4:	2402000b 	li	v0,11
  105ee8:	3c013f00 	lui	at,0x3f00
  105eec:	44810000 	mtc1	at,$f0
  105ef0:	00000000 	nop
  105ef4:	4600a502 	mul.s	$f20,$f20,$f0
  105ef8:	1000ff1c 	b	105b6c <gsKit_prim_sprite_texture_3d+0x8c>
  105efc:	4600b582 	mul.s	$f22,$f22,$f0

00105f00 <gsKit_prim_sprite_striped_texture_3d>:
  105f00:	27bdff00 	addiu	sp,sp,-256
  105f04:	ffb10050 	sd	s1,80(sp)
  105f08:	0080882d 	move	s1,a0
  105f0c:	ffb00040 	sd	s0,64(sp)
  105f10:	00a0802d 	move	s0,a1
  105f14:	0000282d 	move	a1,zero
  105f18:	ffb40080 	sd	s4,128(sp)
  105f1c:	e7be00f4 	swc1	$f30,244(sp)
  105f20:	0100a02d 	move	s4,t0
  105f24:	e7bc00f0 	swc1	$f28,240(sp)
  105f28:	46006786 	mov.s	$f30,$f12
  105f2c:	e7ba00ec 	swc1	$f26,236(sp)
  105f30:	46008706 	mov.s	$f28,$f16
  105f34:	e7b800e8 	swc1	$f24,232(sp)
  105f38:	46007e86 	mov.s	$f26,$f15
  105f3c:	e7b600e4 	swc1	$f22,228(sp)
  105f40:	46009e06 	mov.s	$f24,$f19
  105f44:	e7b400e0 	swc1	$f20,224(sp)
  105f48:	46006d86 	mov.s	$f22,$f13
  105f4c:	ffbf00d0 	sd	ra,208(sp)
  105f50:	46008d06 	mov.s	$f20,$f17
  105f54:	ffbe00c0 	sd	s8,192(sp)
  105f58:	ffb700b0 	sd	s7,176(sp)
  105f5c:	ffb600a0 	sd	s6,160(sp)
  105f60:	ffb50090 	sd	s5,144(sp)
  105f64:	ffb30070 	sd	s3,112(sp)
  105f68:	ffb20060 	sd	s2,96(sp)
  105f6c:	afa60000 	sw	a2,0(sp)
  105f70:	e7ae0010 	swc1	$f14,16(sp)
  105f74:	afa70020 	sw	a3,32(sp)
  105f78:	0c04031e 	jal	100c78 <gsKit_set_texfilter>
  105f7c:	e7b20030 	swc1	$f18,48(sp)
  105f80:	86220004 	lh	v0,4(s1)
  105f84:	24090001 	li	t1,1
  105f88:	10490188 	beq	v0,t1,1065ac <gsKit_prim_sprite_striped_texture_3d+0x6ac>
  105f8c:	00000000 	nop
  105f90:	3c014180 	lui	at,0x4180
  105f94:	44810000 	mtc1	at,$f0
  105f98:	4600f0a4 	cvt.w.s	$f2,$f30
  105f9c:	440b1000 	mfc1	t3,$f2
  105fa0:	4600e0a4 	cvt.w.s	$f2,$f28
  105fa4:	440d1000 	mfc1	t5,$f2
  105fa8:	8e240030 	lw	a0,48(s1)
  105fac:	4600a082 	mul.s	$f2,$f20,$f0
  105fb0:	8e050000 	lw	a1,0(s0)
  105fb4:	4600b182 	mul.s	$f6,$f22,$f0
  105fb8:	0160602d 	move	t4,t3
  105fbc:	4600c102 	mul.s	$f4,$f24,$f0
  105fc0:	01a0702d 	move	t6,t5
  105fc4:	4600d002 	mul.s	$f0,$f26,$f0
  105fc8:	46003224 	cvt.w.s	$f8,$f6
  105fcc:	44024000 	mfc1	v0,$f8
  105fd0:	460011a4 	cvt.w.s	$f6,$f2
  105fd4:	44033000 	mfc1	v1,$f6
  105fd8:	460020a4 	cvt.w.s	$f2,$f4
  105fdc:	441e1000 	mfc1	s8,$f2
  105fe0:	0044b021 	addu	s6,v0,a0
  105fe4:	460000a4 	cvt.w.s	$f2,$f0
  105fe8:	44151000 	mfc1	s5,$f2
  105fec:	0064b821 	addu	s7,v1,a0
  105ff0:	70a01804 	plzcw	v1,a1
  105ff4:	2406001e 	li	a2,30
  105ff8:	8e040004 	lw	a0,4(s0)
  105ffc:	00c33823 	subu	a3,a2,v1
  106000:	00e91004 	sllv	v0,t1,a3
  106004:	0045102b 	sltu	v0,v0,a1
  106008:	00e23821 	addu	a3,a3,v0
  10600c:	70801804 	plzcw	v1,a0
  106010:	00c34023 	subu	t0,a2,v1
  106014:	8e0a001c 	lw	t2,28(s0)
  106018:	01091004 	sllv	v0,t1,t0
  10601c:	0044102b 	sltu	v0,v0,a0
  106020:	15400149 	bnez	t2,106548 <gsKit_prim_sprite_striped_texture_3d+0x648>
  106024:	01024021 	addu	t0,t0,v0
  106028:	8e020018 	lw	v0,24(s0)
  10602c:	00e0302d 	move	a2,a3
  106030:	9e04000c 	lwu	a0,12(s0)
  106034:	000636b8 	dsll	a2,a2,0x1a
  106038:	00021202 	srl	v0,v0,0x8
  10603c:	92030008 	lbu	v1,8(s0)
  106040:	0002103c 	dsll32	v0,v0,0x0
  106044:	000423b8 	dsll	a0,a0,0xe
  106048:	0002103e 	dsrl32	v0,v0,0x0
  10604c:	00031d38 	dsll	v1,v1,0x14
  106050:	00441025 	or	v0,v0,a0
  106054:	0100282d 	move	a1,t0
  106058:	00431025 	or	v0,v0,v1
  10605c:	8e270098 	lw	a3,152(s1)
  106060:	00461025 	or	v0,v0,a2
  106064:	00052fb8 	dsll	a1,a1,0x1e
  106068:	92040009 	lbu	a0,9(s0)
  10606c:	00451025 	or	v0,v0,a1
  106070:	000718bc 	dsll32	v1,a3,0x2
  106074:	00431025 	or	v0,v0,v1
  106078:	000425fc 	dsll32	a0,a0,0x17
  10607c:	8e230090 	lw	v1,144(s1)
  106080:	00449825 	or	s3,v0,a0
  106084:	8e250094 	lw	a1,148(s1)
  106088:	00e0102d 	move	v0,a3
  10608c:	000211b8 	dsll	v0,v0,0x6
  106090:	00031978 	dsll	v1,v1,0x5
  106094:	8e24008c 	lw	a0,140(s1)
  106098:	00621825 	or	v1,v1,v0
  10609c:	000529f8 	dsll	a1,a1,0x7
  1060a0:	3186003f 	andi	a2,t4,0x3f
  1060a4:	00651825 	or	v1,v1,a1
  1060a8:	00042278 	dsll	a0,a0,0x9
  1060ac:	00641825 	or	v1,v1,a0
  1060b0:	000b2983 	sra	a1,t3,0x6
  1060b4:	000d2183 	sra	a0,t5,0x6
  1060b8:	24020116 	li	v0,278
  1060bc:	00055980 	sll	t3,a1,0x6
  1060c0:	00629025 	or	s2,v1,v0
  1060c4:	00046980 	sll	t5,a0,0x6
  1060c8:	10c00003 	beqz	a2,1060d8 <gsKit_prim_sprite_striped_texture_3d+0x1d8>
  1060cc:	0000402d 	move	t0,zero
  1060d0:	256b0040 	addiu	t3,t3,64
  1060d4:	24080001 	li	t0,1
  1060d8:	01ab2023 	subu	a0,t5,t3
  1060dc:	31c6003f 	andi	a2,t6,0x3f
  1060e0:	2485003f 	addiu	a1,a0,63
  1060e4:	28820000 	slti	v0,a0,0
  1060e8:	00a2200b 	movn	a0,a1,v0
  1060ec:	25030001 	addiu	v1,t0,1
  1060f0:	0066400b 	movn	t0,v1,a2
  1060f4:	00044983 	sra	t1,a0,0x6
  1060f8:	01284021 	addu	t0,t1,t0
  1060fc:	11000101 	beqz	t0,106504 <gsKit_prim_sprite_striped_texture_3d+0x604>
  106100:	dfbf00d0 	ld	ra,208(sp)
  106104:	448b3000 	mtc1	t3,$f6
  106108:	00000000 	nop
  10610c:	468031a0 	cvt.s.w	$f6,$f6
  106110:	c7a80010 	lwc1	$f8,16(sp)
  106114:	448d2000 	mtc1	t5,$f4
  106118:	00000000 	nop
  10611c:	46802120 	cvt.s.w	$f4,$f4
  106120:	8e2c0050 	lw	t4,80(s1)
  106124:	461ee081 	sub.s	$f2,$f28,$f30
  106128:	00083080 	sll	a2,t0,0x2
  10612c:	461e3281 	sub.s	$f10,$f6,$f30
  106130:	8d840024 	lw	a0,36(t4)
  106134:	4604e401 	sub.s	$f16,$f28,$f4
  106138:	c7a60030 	lwc1	$f6,48(sp)
  10613c:	00861021 	addu	v0,a0,a2
  106140:	3403fffe 	li	v1,0xfffe
  106144:	46025103 	div.s	$f4,$f10,$f2
  106148:	0062182b 	sltu	v1,v1,v0
  10614c:	46083001 	sub.s	$f0,$f6,$f8
  106150:	00086980 	sll	t5,t0,0x6
  106154:	46028083 	div.s	$f2,$f16,$f2
  106158:	240a000e 	li	t2,14
  10615c:	44893000 	mtc1	t1,$f6
  106160:	00000000 	nop
  106164:	468031a0 	cvt.s.w	$f6,$f6
  106168:	44804000 	mtc1	zero,$f8
  10616c:	46002102 	mul.s	$f4,$f4,$f0
  106170:	46001302 	mul.s	$f12,$f2,$f0
  106174:	46040001 	sub.s	$f0,$f0,$f4
  106178:	460c0001 	sub.s	$f0,$f0,$f12
  10617c:	1060000c 	beqz	v1,1061b0 <gsKit_prim_sprite_striped_texture_3d+0x2b0>
  106180:	46060483 	div.s	$f18,$f0,$f6
  106184:	3c021000 	lui	v0,0x1000
  106188:	8d850008 	lw	a1,8(t4)
  10618c:	00821025 	or	v0,a0,v0
  106190:	ad800024 	sw	zero,36(t4)
  106194:	8d840020 	lw	a0,32(t4)
  106198:	0002103c 	dsll32	v0,v0,0x0
  10619c:	24a30010 	addiu	v1,a1,16
  1061a0:	0002103e 	dsrl32	v0,v0,0x0
  1061a4:	ad830008 	sw	v1,8(t4)
  1061a8:	fc820000 	sd	v0,0(a0)
  1061ac:	ad850020 	sw	a1,32(t4)
  1061b0:	8d830014 	lw	v1,20(t4)
  1061b4:	2402000b 	li	v0,11
  1061b8:	50620009 	beql	v1,v0,1061e0 <gsKit_prim_sprite_striped_texture_3d+0x2e0>
  1061bc:	8e250050 	lw	a1,80(s1)
  1061c0:	506a0007 	beql	v1,t2,1061e0 <gsKit_prim_sprite_striped_texture_3d+0x2e0>
  1061c4:	8e250050 	lw	a1,80(s1)
  1061c8:	8d820018 	lw	v0,24(t4)
  1061cc:	8d83001c 	lw	v1,28(t4)
  1061d0:	dc440000 	ld	a0,0(v0)
  1061d4:	00641825 	or	v1,v1,a0
  1061d8:	fc430000 	sd	v1,0(v0)
  1061dc:	8e250050 	lw	a1,80(s1)
  1061e0:	24c60001 	addiu	a2,a2,1
  1061e4:	ad80001c 	sw	zero,28(t4)
  1061e8:	3c070535 	lui	a3,0x535
  1061ec:	8ca30024 	lw	v1,36(a1)
  1061f0:	35088000 	ori	t0,t0,0x8000
  1061f4:	8ca2001c 	lw	v0,28(a1)
  1061f8:	34e73100 	ori	a3,a3,0x3100
  1061fc:	00661821 	addu	v1,v1,a2
  106200:	acaa0014 	sw	t2,20(a1)
  106204:	24420001 	addiu	v0,v0,1
  106208:	aca30024 	sw	v1,36(a1)
  10620c:	aca2001c 	sw	v0,28(a1)
  106210:	34048400 	li	a0,0x8400
  106214:	0004243c 	dsll32	a0,a0,0x10
  106218:	3c013f80 	lui	at,0x3f80
  10621c:	44810000 	mtc1	at,$f0
  106220:	01042025 	or	a0,t0,a0
  106224:	8e23008c 	lw	v1,140(s1)
  106228:	25ad0010 	addiu	t5,t5,16
  10622c:	8ca60008 	lw	a2,8(a1)
  106230:	460a0036 	c.ole.s	$f0,$f10
  106234:	24630006 	addiu	v1,v1,6
  106238:	8d880008 	lw	t0,8(t4)
  10623c:	00c0502d 	move	t2,a2
  106240:	00671825 	or	v1,v1,a3
  106244:	3402f000 	li	v0,0xf000
  106248:	00021438 	dsll	v0,v0,0x10
  10624c:	fcc40000 	sd	a0,0(a2)
  106250:	254a0008 	addiu	t2,t2,8
  106254:	00621025 	or	v0,v1,v0
  106258:	00cd3021 	addu	a2,a2,t5
  10625c:	fd420000 	sd	v0,0(t2)
  106260:	aca60008 	sw	a2,8(a1)
  106264:	254a0008 	addiu	t2,t2,8
  106268:	45000034 	bc1f	10633c <gsKit_prim_sprite_striped_texture_3d+0x43c>
  10626c:	ad880018 	sw	t0,24(t4)
  106270:	3c014180 	lui	at,0x4180
  106274:	44810000 	mtc1	at,$f0
  106278:	46002206 	mov.s	$f8,$f4
  10627c:	c7a60010 	lwc1	$f6,16(sp)
  106280:	02a0182d 	move	v1,s5
  106284:	4600f082 	mul.s	$f2,$f30,$f0
  106288:	8e280030 	lw	t0,48(s1)
  10628c:	46003102 	mul.s	$f4,$f6,$f0
  106290:	00031c38 	dsll	v1,v1,0x10
  106294:	46004002 	mul.s	$f0,$f8,$f0
  106298:	02c0202d 	move	a0,s6
  10629c:	460011a4 	cvt.w.s	$f6,$f2
  1062a0:	44023000 	mfc1	v0,$f6
  1062a4:	00042438 	dsll	a0,a0,0x10
  1062a8:	460020a4 	cvt.w.s	$f2,$f4
  1062ac:	44051000 	mfc1	a1,$f2
  1062b0:	fd530000 	sd	s3,0(t2)
  1062b4:	460000a4 	cvt.w.s	$f2,$f0
  1062b8:	44061000 	mfc1	a2,$f2
  1062bc:	03c0602d 	move	t4,s8
  1062c0:	00481021 	addu	v0,v0,t0
  1062c4:	254a0008 	addiu	t2,t2,8
  1062c8:	00a31825 	or	v1,a1,v1
  1062cc:	00441025 	or	v0,v0,a0
  1062d0:	8fa50000 	lw	a1,0(sp)
  1062d4:	000b3900 	sll	a3,t3,0x4
  1062d8:	fd520000 	sd	s2,0(t2)
  1062dc:	254a0008 	addiu	t2,t2,8
  1062e0:	0005203c 	dsll32	a0,a1,0x0
  1062e4:	fd540000 	sd	s4,0(t2)
  1062e8:	00441025 	or	v0,v0,a0
  1062ec:	02e0282d 	move	a1,s7
  1062f0:	000c2438 	dsll	a0,t4,0x10
  1062f4:	254a0008 	addiu	t2,t2,8
  1062f8:	00c42025 	or	a0,a2,a0
  1062fc:	fd430000 	sd	v1,0(t2)
  106300:	8fa60020 	lw	a2,32(sp)
  106304:	00052c38 	dsll	a1,a1,0x10
  106308:	254a0008 	addiu	t2,t2,8
  10630c:	00e81821 	addu	v1,a3,t0
  106310:	fd420000 	sd	v0,0(t2)
  106314:	00651825 	or	v1,v1,a1
  106318:	254a0008 	addiu	t2,t2,8
  10631c:	0006103c 	dsll32	v0,a2,0x0
  106320:	fd440000 	sd	a0,0(t2)
  106324:	00621825 	or	v1,v1,v0
  106328:	254a0008 	addiu	t2,t2,8
  10632c:	fd430000 	sd	v1,0(t2)
  106330:	254a0008 	addiu	t2,t2,8
  106334:	fd400000 	sd	zero,0(t2)
  106338:	254a0008 	addiu	t2,t2,8
  10633c:	2529ffff 	addiu	t1,t1,-1
  106340:	2402ffff 	li	v0,-1
  106344:	11220035 	beq	t1,v0,10641c <gsKit_prim_sprite_striped_texture_3d+0x51c>
  106348:	02a0182d 	move	v1,s5
  10634c:	8fa20000 	lw	v0,0(sp)
  106350:	0003c438 	dsll	t8,v1,0x10
  106354:	03c0602d 	move	t4,s8
  106358:	8fa30020 	lw	v1,32(sp)
  10635c:	02c0202d 	move	a0,s6
  106360:	02e0282d 	move	a1,s7
  106364:	8e280030 	lw	t0,48(s1)
  106368:	3c014180 	lui	at,0x4180
  10636c:	44811000 	mtc1	at,$f2
  106370:	000c7c38 	dsll	t7,t4,0x10
  106374:	00048438 	dsll	s0,a0,0x10
  106378:	00057438 	dsll	t6,a1,0x10
  10637c:	000b3900 	sll	a3,t3,0x4
  106380:	0002683c 	dsll32	t5,v0,0x0
  106384:	0003603c 	dsll32	t4,v1,0x0
  106388:	2419ffff 	li	t9,-1
  10638c:	46024002 	mul.s	$f0,$f8,$f2
  106390:	fd530000 	sd	s3,0(t2)
  106394:	46124200 	add.s	$f8,$f8,$f18
  106398:	254a0008 	addiu	t2,t2,8
  10639c:	fd520000 	sd	s2,0(t2)
  1063a0:	00e81821 	addu	v1,a3,t0
  1063a4:	46000124 	cvt.w.s	$f4,$f0
  1063a8:	44052000 	mfc1	a1,$f4
  1063ac:	254a0008 	addiu	t2,t2,8
  1063b0:	46024002 	mul.s	$f0,$f8,$f2
  1063b4:	256b0040 	addiu	t3,t3,64
  1063b8:	fd540000 	sd	s4,0(t2)
  1063bc:	000b1100 	sll	v0,t3,0x4
  1063c0:	00b82025 	or	a0,a1,t8
  1063c4:	254a0008 	addiu	t2,t2,8
  1063c8:	46000124 	cvt.w.s	$f4,$f0
  1063cc:	44062000 	mfc1	a2,$f4
  1063d0:	00701825 	or	v1,v1,s0
  1063d4:	fd440000 	sd	a0,0(t2)
  1063d8:	0040382d 	move	a3,v0
  1063dc:	254a0008 	addiu	t2,t2,8
  1063e0:	006d1825 	or	v1,v1,t5
  1063e4:	00481021 	addu	v0,v0,t0
  1063e8:	fd430000 	sd	v1,0(t2)
  1063ec:	00cf2025 	or	a0,a2,t7
  1063f0:	004e1025 	or	v0,v0,t6
  1063f4:	254a0008 	addiu	t2,t2,8
  1063f8:	004c1025 	or	v0,v0,t4
  1063fc:	fd440000 	sd	a0,0(t2)
  106400:	2529ffff 	addiu	t1,t1,-1
  106404:	254a0008 	addiu	t2,t2,8
  106408:	fd420000 	sd	v0,0(t2)
  10640c:	254a0008 	addiu	t2,t2,8
  106410:	fd400000 	sd	zero,0(t2)
  106414:	1539ffde 	bne	t1,t9,106390 <gsKit_prim_sprite_striped_texture_3d+0x490>
  106418:	254a0008 	addiu	t2,t2,8
  10641c:	44800000 	mtc1	zero,$f0
  106420:	00000000 	nop
  106424:	46100034 	c.olt.s	$f0,$f16
  106428:	00000000 	nop
  10642c:	45000035 	bc1f	106504 <gsKit_prim_sprite_striped_texture_3d+0x604>
  106430:	dfbf00d0 	ld	ra,208(sp)
  106434:	448b1000 	mtc1	t3,$f2
  106438:	00000000 	nop
  10643c:	468010a0 	cvt.s.w	$f2,$f2
  106440:	3c014180 	lui	at,0x4180
  106444:	44810000 	mtc1	at,$f0
  106448:	8e290030 	lw	t1,48(s1)
  10644c:	02a0302d 	move	a2,s5
  106450:	46004102 	mul.s	$f4,$f8,$f0
  106454:	02c0202d 	move	a0,s6
  106458:	46028400 	add.s	$f16,$f16,$f2
  10645c:	00042438 	dsll	a0,a0,0x10
  106460:	460c4200 	add.s	$f8,$f8,$f12
  106464:	00063438 	dsll	a2,a2,0x10
  106468:	460020a4 	cvt.w.s	$f2,$f4
  10646c:	44051000 	mfc1	a1,$f2
  106470:	fd530000 	sd	s3,0(t2)
  106474:	46008082 	mul.s	$f2,$f16,$f0
  106478:	000b1100 	sll	v0,t3,0x4
  10647c:	46004002 	mul.s	$f0,$f8,$f0
  106480:	00491021 	addu	v0,v0,t1
  106484:	254a0008 	addiu	t2,t2,8
  106488:	00a63025 	or	a2,a1,a2
  10648c:	46001124 	cvt.w.s	$f4,$f2
  106490:	44032000 	mfc1	v1,$f4
  106494:	00441025 	or	v0,v0,a0
  106498:	02e0282d 	move	a1,s7
  10649c:	8fa40000 	lw	a0,0(sp)
  1064a0:	fd520000 	sd	s2,0(t2)
  1064a4:	460000a4 	cvt.w.s	$f2,$f0
  1064a8:	44081000 	mfc1	t0,$f2
  1064ac:	254a0008 	addiu	t2,t2,8
  1064b0:	00052c38 	dsll	a1,a1,0x10
  1064b4:	00691821 	addu	v1,v1,t1
  1064b8:	fd540000 	sd	s4,0(t2)
  1064bc:	0004383c 	dsll32	a3,a0,0x0
  1064c0:	00651825 	or	v1,v1,a1
  1064c4:	254a0008 	addiu	t2,t2,8
  1064c8:	03c0202d 	move	a0,s8
  1064cc:	8fa50020 	lw	a1,32(sp)
  1064d0:	00471025 	or	v0,v0,a3
  1064d4:	fd460000 	sd	a2,0(t2)
  1064d8:	00042438 	dsll	a0,a0,0x10
  1064dc:	254a0008 	addiu	t2,t2,8
  1064e0:	01042025 	or	a0,t0,a0
  1064e4:	fd420000 	sd	v0,0(t2)
  1064e8:	254a0008 	addiu	t2,t2,8
  1064ec:	0005103c 	dsll32	v0,a1,0x0
  1064f0:	fd440000 	sd	a0,0(t2)
  1064f4:	00621825 	or	v1,v1,v0
  1064f8:	254a0008 	addiu	t2,t2,8
  1064fc:	fd430000 	sd	v1,0(t2)
  106500:	fd400008 	sd	zero,8(t2)
  106504:	dfbe00c0 	ld	s8,192(sp)
  106508:	dfb700b0 	ld	s7,176(sp)
  10650c:	dfb600a0 	ld	s6,160(sp)
  106510:	dfb50090 	ld	s5,144(sp)
  106514:	dfb40080 	ld	s4,128(sp)
  106518:	dfb30070 	ld	s3,112(sp)
  10651c:	dfb20060 	ld	s2,96(sp)
  106520:	dfb10050 	ld	s1,80(sp)
  106524:	dfb00040 	ld	s0,64(sp)
  106528:	c7be00f4 	lwc1	$f30,244(sp)
  10652c:	c7bc00f0 	lwc1	$f28,240(sp)
  106530:	c7ba00ec 	lwc1	$f26,236(sp)
  106534:	c7b800e8 	lwc1	$f24,232(sp)
  106538:	c7b600e4 	lwc1	$f22,228(sp)
  10653c:	c7b400e0 	lwc1	$f20,224(sp)
  106540:	03e00008 	jr	ra
  106544:	27bd0100 	addiu	sp,sp,256
  106548:	8e020018 	lw	v0,24(s0)
  10654c:	00e0302d 	move	a2,a3
  106550:	9e05000c 	lwu	a1,12(s0)
  106554:	000636b8 	dsll	a2,a2,0x1a
  106558:	00021202 	srl	v0,v0,0x8
  10655c:	92030008 	lbu	v1,8(s0)
  106560:	0002103c 	dsll32	v0,v0,0x0
  106564:	00052bb8 	dsll	a1,a1,0xe
  106568:	0002103e 	dsrl32	v0,v0,0x0
  10656c:	00031d38 	dsll	v1,v1,0x14
  106570:	00451025 	or	v0,v0,a1
  106574:	0100202d 	move	a0,t0
  106578:	00431025 	or	v0,v0,v1
  10657c:	8e270098 	lw	a3,152(s1)
  106580:	000427b8 	dsll	a0,a0,0x1e
  106584:	00461025 	or	v0,v0,a2
  106588:	00441025 	or	v0,v0,a0
  10658c:	000a1a02 	srl	v1,t2,0x8
  106590:	000720bc 	dsll32	a0,a3,0x2
  106594:	0003197c 	dsll32	v1,v1,0x5
  106598:	00441025 	or	v0,v0,a0
  10659c:	34048000 	li	a0,0x8000
  1065a0:	000423bc 	dsll32	a0,a0,0xe
  1065a4:	1000feb5 	b	10607c <gsKit_prim_sprite_striped_texture_3d+0x17c>
  1065a8:	00431025 	or	v0,v0,v1
  1065ac:	3c013f00 	lui	at,0x3f00
  1065b0:	44810000 	mtc1	at,$f0
  1065b4:	00000000 	nop
  1065b8:	4600a502 	mul.s	$f20,$f20,$f0
  1065bc:	1000fe74 	b	105f90 <gsKit_prim_sprite_striped_texture_3d+0x90>
  1065c0:	4600b582 	mul.s	$f22,$f22,$f0
  1065c4:	00000000 	nop

001065c8 <gsKit_prim_triangle_texture_3d>:
  1065c8:	27bdfee0 	addiu	sp,sp,-288
  1065cc:	ffb10070 	sd	s1,112(sp)
  1065d0:	0080882d 	move	s1,a0
  1065d4:	ffb00060 	sd	s0,96(sp)
  1065d8:	00a0802d 	move	s0,a1
  1065dc:	e7be0114 	swc1	$f30,276(sp)
  1065e0:	46009786 	mov.s	$f30,$f18
  1065e4:	e7bc0110 	swc1	$f28,272(sp)
  1065e8:	46006706 	mov.s	$f28,$f12
  1065ec:	e7ba010c 	swc1	$f26,268(sp)
  1065f0:	46008686 	mov.s	$f26,$f16
  1065f4:	e7b80108 	swc1	$f24,264(sp)
  1065f8:	46006e06 	mov.s	$f24,$f13
  1065fc:	e7b60104 	swc1	$f22,260(sp)
  106600:	46008d86 	mov.s	$f22,$f17
  106604:	e7b40100 	swc1	$f20,256(sp)
  106608:	ffbf00f0 	sd	ra,240(sp)
  10660c:	ffbe00e0 	sd	s8,224(sp)
  106610:	ffb700d0 	sd	s7,208(sp)
  106614:	ffb600c0 	sd	s6,192(sp)
  106618:	ffb500b0 	sd	s5,176(sp)
  10661c:	ffb400a0 	sd	s4,160(sp)
  106620:	ffb30090 	sd	s3,144(sp)
  106624:	ffb20080 	sd	s2,128(sp)
  106628:	afa60000 	sw	a2,0(sp)
  10662c:	90a50020 	lbu	a1,32(a1)
  106630:	e7ae0010 	swc1	$f14,16(sp)
  106634:	e7af0014 	swc1	$f15,20(sp)
  106638:	afa70020 	sw	a3,32(sp)
  10663c:	e7b30030 	swc1	$f19,48(sp)
  106640:	afa80040 	sw	t0,64(sp)
  106644:	ffa90050 	sd	t1,80(sp)
  106648:	0c04031e 	jal	100c78 <gsKit_set_texfilter>
  10664c:	c7b40128 	lwc1	$f20,296(sp)
  106650:	8e030000 	lw	v1,0(s0)
  106654:	70601004 	plzcw	v0,v1
  106658:	2407001e 	li	a3,30
  10665c:	24050001 	li	a1,1
  106660:	00e25823 	subu	t3,a3,v0
  106664:	8e040004 	lw	a0,4(s0)
  106668:	01651004 	sllv	v0,a1,t3
  10666c:	0043102b 	sltu	v0,v0,v1
  106670:	01625821 	addu	t3,t3,v0
  106674:	70801804 	plzcw	v1,a0
  106678:	00e36823 	subu	t5,a3,v1
  10667c:	86260004 	lh	a2,4(s1)
  106680:	01a51004 	sllv	v0,a1,t5
  106684:	0044102b 	sltu	v0,v0,a0
  106688:	10c500f9 	beq	a2,a1,106a70 <gsKit_prim_triangle_texture_3d+0x4a8>
  10668c:	01a26821 	addu	t5,t5,v0
  106690:	3c014180 	lui	at,0x4180
  106694:	44811000 	mtc1	at,$f2
  106698:	3406fffe 	li	a2,0xfffe
  10669c:	8e2a0050 	lw	t2,80(s1)
  1066a0:	240e0005 	li	t6,5
  1066a4:	4602e302 	mul.s	$f12,$f28,$f2
  1066a8:	c7a00120 	lwc1	$f0,288(sp)
  1066ac:	4602d282 	mul.s	$f10,$f26,$f2
  1066b0:	8d490024 	lw	t1,36(t2)
  1066b4:	46020002 	mul.s	$f0,$f0,$f2
  1066b8:	8e230030 	lw	v1,48(s1)
  1066bc:	25220005 	addiu	v0,t1,5
  1066c0:	4602c182 	mul.s	$f6,$f24,$f2
  1066c4:	4602b202 	mul.s	$f8,$f22,$f2
  1066c8:	00c2302b 	sltu	a2,a2,v0
  1066cc:	4602a102 	mul.s	$f4,$f20,$f2
  1066d0:	240f0050 	li	t7,80
  1066d4:	460063a4 	cvt.w.s	$f14,$f12
  1066d8:	44027000 	mfc1	v0,$f14
  1066dc:	240c1b00 	li	t4,6912
  1066e0:	46005324 	cvt.w.s	$f12,$f10
  1066e4:	44046000 	mfc1	a0,$f12
  1066e8:	c7ae0030 	lwc1	$f14,48(sp)
  1066ec:	460002a4 	cvt.w.s	$f10,$f0
  1066f0:	44055000 	mfc1	a1,$f10
  1066f4:	c7ac0014 	lwc1	$f12,20(sp)
  1066f8:	46003024 	cvt.w.s	$f0,$f6
  1066fc:	44070000 	mfc1	a3,$f0
  106700:	0043b021 	addu	s6,v0,v1
  106704:	0083f021 	addu	s8,a0,v1
  106708:	46004024 	cvt.w.s	$f0,$f8
  10670c:	44080000 	mfc1	t0,$f0
  106710:	46002024 	cvt.w.s	$f0,$f4
  106714:	44020000 	mfc1	v0,$f0
  106718:	c7a80010 	lwc1	$f8,16(sp)
  10671c:	c7a40138 	lwc1	$f4,312(sp)
  106720:	46026182 	mul.s	$f6,$f12,$f2
  106724:	c7a00130 	lwc1	$f0,304(sp)
  106728:	46024282 	mul.s	$f10,$f8,$f2
  10672c:	46022102 	mul.s	$f4,$f4,$f2
  106730:	00a32821 	addu	a1,a1,v1
  106734:	46020002 	mul.s	$f0,$f0,$f2
  106738:	0043a821 	addu	s5,v0,v1
  10673c:	4602f202 	mul.s	$f8,$f30,$f2
  106740:	00e39021 	addu	s2,a3,v1
  106744:	46027082 	mul.s	$f2,$f14,$f2
  106748:	afa50058 	sw	a1,88(sp)
  10674c:	46005324 	cvt.w.s	$f12,$f10
  106750:	44196000 	mfc1	t9,$f12
  106754:	460042a4 	cvt.w.s	$f10,$f8
  106758:	44145000 	mfc1	s4,$f10
  10675c:	46000224 	cvt.w.s	$f8,$f0
  106760:	44174000 	mfc1	s7,$f8
  106764:	46003024 	cvt.w.s	$f0,$f6
  106768:	44180000 	mfc1	t8,$f0
  10676c:	46001024 	cvt.w.s	$f0,$f2
  106770:	44070000 	mfc1	a3,$f0
  106774:	46002024 	cvt.w.s	$f0,$f4
  106778:	44130000 	mfc1	s3,$f0
  10677c:	10c0000c 	beqz	a2,1067b0 <gsKit_prim_triangle_texture_3d+0x1e8>
  106780:	01034021 	addu	t0,t0,v1
  106784:	3c021000 	lui	v0,0x1000
  106788:	8d450008 	lw	a1,8(t2)
  10678c:	01221025 	or	v0,t1,v0
  106790:	8d440020 	lw	a0,32(t2)
  106794:	0002103c 	dsll32	v0,v0,0x0
  106798:	24a30010 	addiu	v1,a1,16
  10679c:	0002103e 	dsrl32	v0,v0,0x0
  1067a0:	ad430008 	sw	v1,8(t2)
  1067a4:	fc820000 	sd	v0,0(a0)
  1067a8:	ad400024 	sw	zero,36(t2)
  1067ac:	ad450020 	sw	a1,32(t2)
  1067b0:	8d430014 	lw	v1,20(t2)
  1067b4:	106c00a8 	beq	v1,t4,106a58 <gsKit_prim_triangle_texture_3d+0x490>
  1067b8:	2402000b 	li	v0,11
  1067bc:	10620008 	beq	v1,v0,1067e0 <gsKit_prim_triangle_texture_3d+0x218>
  1067c0:	2402000e 	li	v0,14
  1067c4:	50620007 	beql	v1,v0,1067e4 <gsKit_prim_triangle_texture_3d+0x21c>
  1067c8:	8d420008 	lw	v0,8(t2)
  1067cc:	8d420018 	lw	v0,24(t2)
  1067d0:	8d43001c 	lw	v1,28(t2)
  1067d4:	dc440000 	ld	a0,0(v0)
  1067d8:	00641825 	or	v1,v1,a0
  1067dc:	fc430000 	sd	v1,0(v0)
  1067e0:	8d420008 	lw	v0,8(t2)
  1067e4:	240e0006 	li	t6,6
  1067e8:	ad40001c 	sw	zero,28(t2)
  1067ec:	240f0060 	li	t7,96
  1067f0:	ad420018 	sw	v0,24(t2)
  1067f4:	8d43001c 	lw	v1,28(t2)
  1067f8:	3c053535 	lui	a1,0x3535
  1067fc:	8d420024 	lw	v0,36(t2)
  106800:	34a53100 	ori	a1,a1,0x3100
  106804:	24630001 	addiu	v1,v1,1
  106808:	ad4c0014 	sw	t4,20(t2)
  10680c:	004e1021 	addu	v0,v0,t6
  106810:	ad43001c 	sw	v1,28(t2)
  106814:	ad420024 	sw	v0,36(t2)
  106818:	3c02a400 	lui	v0,0xa400
  10681c:	0002103c 	dsll32	v0,v0,0x0
  106820:	34428000 	ori	v0,v0,0x8000
  106824:	8d440008 	lw	a0,8(t2)
  106828:	8e2e008c 	lw	t6,140(s1)
  10682c:	fc820000 	sd	v0,0(a0)
  106830:	0080482d 	move	t1,a0
  106834:	25c30006 	addiu	v1,t6,6
  106838:	3402f500 	li	v0,0xf500
  10683c:	00021638 	dsll	v0,v0,0x18
  106840:	00651825 	or	v1,v1,a1
  106844:	8e0c001c 	lw	t4,28(s0)
  106848:	25290008 	addiu	t1,t1,8
  10684c:	008f2021 	addu	a0,a0,t7
  106850:	00621025 	or	v0,v1,v0
  106854:	ad440008 	sw	a0,8(t2)
  106858:	fd220000 	sd	v0,0(t1)
  10685c:	15800064 	bnez	t4,1069f0 <gsKit_prim_triangle_texture_3d+0x428>
  106860:	25290008 	addiu	t1,t1,8
  106864:	8e020018 	lw	v0,24(s0)
  106868:	0160302d 	move	a2,t3
  10686c:	9e05000c 	lwu	a1,12(s0)
  106870:	000636b8 	dsll	a2,a2,0x1a
  106874:	00021202 	srl	v0,v0,0x8
  106878:	92030008 	lbu	v1,8(s0)
  10687c:	0002103c 	dsll32	v0,v0,0x0
  106880:	00052bb8 	dsll	a1,a1,0xe
  106884:	0002103e 	dsrl32	v0,v0,0x0
  106888:	00031d38 	dsll	v1,v1,0x14
  10688c:	00451025 	or	v0,v0,a1
  106890:	01a0202d 	move	a0,t5
  106894:	00431025 	or	v0,v0,v1
  106898:	8e2a0098 	lw	t2,152(s1)
  10689c:	00461025 	or	v0,v0,a2
  1068a0:	92030009 	lbu	v1,9(s0)
  1068a4:	000427b8 	dsll	a0,a0,0x1e
  1068a8:	000a28bc 	dsll32	a1,t2,0x2
  1068ac:	00441025 	or	v0,v0,a0
  1068b0:	00031dfc 	dsll32	v1,v1,0x17
  1068b4:	00451025 	or	v0,v0,a1
  1068b8:	00431025 	or	v0,v0,v1
  1068bc:	fd220000 	sd	v0,0(t1)
  1068c0:	0140182d 	move	v1,t2
  1068c4:	8e220090 	lw	v0,144(s1)
  1068c8:	000319b8 	dsll	v1,v1,0x6
  1068cc:	8e250094 	lw	a1,148(s1)
  1068d0:	01c0202d 	move	a0,t6
  1068d4:	00021178 	dsll	v0,v0,0x5
  1068d8:	00042278 	dsll	a0,a0,0x9
  1068dc:	00431025 	or	v0,v0,v1
  1068e0:	000529f8 	dsll	a1,a1,0x7
  1068e4:	00451025 	or	v0,v0,a1
  1068e8:	24030113 	li	v1,275
  1068ec:	00441025 	or	v0,v0,a0
  1068f0:	25290008 	addiu	t1,t1,8
  1068f4:	00431025 	or	v0,v0,v1
  1068f8:	8fa40000 	lw	a0,0(sp)
  1068fc:	fd220000 	sd	v0,0(t1)
  106900:	0300282d 	move	a1,t8
  106904:	dfa20050 	ld	v0,80(sp)
  106908:	0240182d 	move	v1,s2
  10690c:	25290008 	addiu	t1,t1,8
  106910:	00052c38 	dsll	a1,a1,0x10
  106914:	00031c38 	dsll	v1,v1,0x10
  106918:	fd220000 	sd	v0,0(t1)
  10691c:	03252825 	or	a1,t9,a1
  106920:	02c31825 	or	v1,s6,v1
  106924:	0004103c 	dsll32	v0,a0,0x0
  106928:	00e0302d 	move	a2,a3
  10692c:	25290008 	addiu	t1,t1,8
  106930:	00621825 	or	v1,v1,v0
  106934:	fd250000 	sd	a1,0(t1)
  106938:	00063438 	dsll	a2,a2,0x10
  10693c:	25290008 	addiu	t1,t1,8
  106940:	02863025 	or	a2,s4,a2
  106944:	fd230000 	sd	v1,0(t1)
  106948:	0100202d 	move	a0,t0
  10694c:	8fa70020 	lw	a3,32(sp)
  106950:	25290008 	addiu	t1,t1,8
  106954:	fd260000 	sd	a2,0(t1)
  106958:	02a0102d 	move	v0,s5
  10695c:	0260182d 	move	v1,s3
  106960:	8fa80058 	lw	t0,88(sp)
  106964:	8fa60040 	lw	a2,64(sp)
  106968:	00042438 	dsll	a0,a0,0x10
  10696c:	0007283c 	dsll32	a1,a3,0x0
  106970:	03c42025 	or	a0,s8,a0
  106974:	00021438 	dsll	v0,v0,0x10
  106978:	00031c38 	dsll	v1,v1,0x10
  10697c:	00852025 	or	a0,a0,a1
  106980:	02e31825 	or	v1,s7,v1
  106984:	01021025 	or	v0,t0,v0
  106988:	0006283c 	dsll32	a1,a2,0x0
  10698c:	25290008 	addiu	t1,t1,8
  106990:	dfbf00f0 	ld	ra,240(sp)
  106994:	dfbe00e0 	ld	s8,224(sp)
  106998:	00451025 	or	v0,v0,a1
  10699c:	dfb700d0 	ld	s7,208(sp)
  1069a0:	dfb600c0 	ld	s6,192(sp)
  1069a4:	dfb500b0 	ld	s5,176(sp)
  1069a8:	dfb400a0 	ld	s4,160(sp)
  1069ac:	dfb30090 	ld	s3,144(sp)
  1069b0:	dfb20080 	ld	s2,128(sp)
  1069b4:	dfb10070 	ld	s1,112(sp)
  1069b8:	dfb00060 	ld	s0,96(sp)
  1069bc:	c7be0114 	lwc1	$f30,276(sp)
  1069c0:	c7bc0110 	lwc1	$f28,272(sp)
  1069c4:	c7ba010c 	lwc1	$f26,268(sp)
  1069c8:	c7b80108 	lwc1	$f24,264(sp)
  1069cc:	c7b60104 	lwc1	$f22,260(sp)
  1069d0:	c7b40100 	lwc1	$f20,256(sp)
  1069d4:	fd240000 	sd	a0,0(t1)
  1069d8:	25290008 	addiu	t1,t1,8
  1069dc:	fd220008 	sd	v0,8(t1)
  1069e0:	fd230000 	sd	v1,0(t1)
  1069e4:	03e00008 	jr	ra
  1069e8:	27bd0120 	addiu	sp,sp,288
  1069ec:	00000000 	nop
  1069f0:	8e020018 	lw	v0,24(s0)
  1069f4:	0160302d 	move	a2,t3
  1069f8:	9e05000c 	lwu	a1,12(s0)
  1069fc:	000636b8 	dsll	a2,a2,0x1a
  106a00:	00021202 	srl	v0,v0,0x8
  106a04:	92030008 	lbu	v1,8(s0)
  106a08:	0002103c 	dsll32	v0,v0,0x0
  106a0c:	00052bb8 	dsll	a1,a1,0xe
  106a10:	0002103e 	dsrl32	v0,v0,0x0
  106a14:	00031d38 	dsll	v1,v1,0x14
  106a18:	00451025 	or	v0,v0,a1
  106a1c:	01a0202d 	move	a0,t5
  106a20:	00431025 	or	v0,v0,v1
  106a24:	8e2a0098 	lw	t2,152(s1)
  106a28:	000427b8 	dsll	a0,a0,0x1e
  106a2c:	00461025 	or	v0,v0,a2
  106a30:	00441025 	or	v0,v0,a0
  106a34:	000c1a02 	srl	v1,t4,0x8
  106a38:	000a20bc 	dsll32	a0,t2,0x2
  106a3c:	0003197c 	dsll32	v1,v1,0x5
  106a40:	00441025 	or	v0,v0,a0
  106a44:	34048000 	li	a0,0x8000
  106a48:	000423bc 	dsll32	a0,a0,0xe
  106a4c:	00431025 	or	v0,v0,v1
  106a50:	1000ff9a 	b	1068bc <gsKit_prim_triangle_texture_3d+0x2f4>
  106a54:	00441025 	or	v0,v0,a0
  106a58:	8d42001c 	lw	v0,28(t2)
  106a5c:	28427fff 	slti	v0,v0,32767
  106a60:	5440ff65 	bnezl	v0,1067f8 <gsKit_prim_triangle_texture_3d+0x230>
  106a64:	8d43001c 	lw	v1,28(t2)
  106a68:	1000ff54 	b	1067bc <gsKit_prim_triangle_texture_3d+0x1f4>
  106a6c:	2402000b 	li	v0,11
  106a70:	3c013f00 	lui	at,0x3f00
  106a74:	44810000 	mtc1	at,$f0
  106a78:	00000000 	nop
  106a7c:	4600a502 	mul.s	$f20,$f20,$f0
  106a80:	4600c602 	mul.s	$f24,$f24,$f0
  106a84:	1000ff02 	b	106690 <gsKit_prim_triangle_texture_3d+0xc8>
  106a88:	4600b582 	mul.s	$f22,$f22,$f0
  106a8c:	00000000 	nop

00106a90 <gsKit_prim_triangle_strip_texture>:
  106a90:	27bdff60 	addiu	sp,sp,-160
  106a94:	ffbf0090 	sd	ra,144(sp)
  106a98:	ffbe0080 	sd	s8,128(sp)
  106a9c:	03a0f02d 	move	s8,sp
  106aa0:	ffb50070 	sd	s5,112(sp)
  106aa4:	0100a82d 	move	s5,t0
  106aa8:	ffb40060 	sd	s4,96(sp)
  106aac:	0120a02d 	move	s4,t1
  106ab0:	ffb30050 	sd	s3,80(sp)
  106ab4:	00a0982d 	move	s3,a1
  106ab8:	ffb20040 	sd	s2,64(sp)
  106abc:	0080902d 	move	s2,a0
  106ac0:	ffb10030 	sd	s1,48(sp)
  106ac4:	00c0882d 	move	s1,a2
  106ac8:	ffb00020 	sd	s0,32(sp)
  106acc:	00e0802d 	move	s0,a3
  106ad0:	0c04031e 	jal	100c78 <gsKit_set_texfilter>
  106ad4:	90a50020 	lbu	a1,32(a1)
  106ad8:	00101840 	sll	v1,s0,0x1
  106adc:	00101100 	sll	v0,s0,0x4
  106ae0:	03a0702d 	move	t6,sp
  106ae4:	03a2e823 	subu	sp,sp,v0
  106ae8:	24680003 	addiu	t0,v1,3
  106aec:	00108080 	sll	s0,s0,0x2
  106af0:	03a0782d 	move	t7,sp
  106af4:	8e630000 	lw	v1,0(s3)
  106af8:	70601004 	plzcw	v0,v1
  106afc:	2406001e 	li	a2,30
  106b00:	24040001 	li	a0,1
  106b04:	00c25823 	subu	t3,a2,v0
  106b08:	8e650004 	lw	a1,4(s3)
  106b0c:	01641004 	sllv	v0,a0,t3
  106b10:	0043102b 	sltu	v0,v0,v1
  106b14:	01625821 	addu	t3,t3,v0
  106b18:	70a01804 	plzcw	v1,a1
  106b1c:	00c36023 	subu	t4,a2,v1
  106b20:	0000502d 	move	t2,zero
  106b24:	01842004 	sllv	a0,a0,t4
  106b28:	0085202b 	sltu	a0,a0,a1
  106b2c:	1a000028 	blez	s0,106bd0 <gsKit_prim_triangle_strip_texture+0x140>
  106b30:	01846021 	addu	t4,t4,a0
  106b34:	3c014180 	lui	at,0x4180
  106b38:	44812000 	mtc1	at,$f4
  106b3c:	24070001 	li	a3,1
  106b40:	86460004 	lh	a2,4(s2)
  106b44:	03a0202d 	move	a0,sp
  106b48:	3c013f00 	lui	at,0x3f00
  106b4c:	44813000 	mtc1	at,$f6
  106b50:	c6200000 	lwc1	$f0,0(s1)
  106b54:	254a0004 	addiu	t2,t2,4
  106b58:	8e430030 	lw	v1,48(s2)
  106b5c:	0150282a 	slt	a1,t2,s0
  106b60:	46040002 	mul.s	$f0,$f0,$f4
  106b64:	26310004 	addiu	s1,s1,4
  106b68:	460000a4 	cvt.w.s	$f2,$f0
  106b6c:	44021000 	mfc1	v0,$f2
  106b70:	00000000 	nop
  106b74:	00431021 	addu	v0,v0,v1
  106b78:	10c700c3 	beq	a2,a3,106e88 <gsKit_prim_triangle_strip_texture+0x3f8>
  106b7c:	ac820000 	sw	v0,0(a0)
  106b80:	c6200000 	lwc1	$f0,0(s1)
  106b84:	26310004 	addiu	s1,s1,4
  106b88:	8e430030 	lw	v1,48(s2)
  106b8c:	46040002 	mul.s	$f0,$f0,$f4
  106b90:	460000a4 	cvt.w.s	$f2,$f0
  106b94:	44021000 	mfc1	v0,$f2
  106b98:	c6220000 	lwc1	$f2,0(s1)
  106b9c:	26310004 	addiu	s1,s1,4
  106ba0:	c6200000 	lwc1	$f0,0(s1)
  106ba4:	46041082 	mul.s	$f2,$f2,$f4
  106ba8:	00431021 	addu	v0,v0,v1
  106bac:	26310004 	addiu	s1,s1,4
  106bb0:	46040002 	mul.s	$f0,$f0,$f4
  106bb4:	ac820004 	sw	v0,4(a0)
  106bb8:	46001224 	cvt.w.s	$f8,$f2
  106bbc:	e4880008 	swc1	$f8,8(a0)
  106bc0:	460000a4 	cvt.w.s	$f2,$f0
  106bc4:	e482000c 	swc1	$f2,12(a0)
  106bc8:	14a0ffe1 	bnez	a1,106b50 <gsKit_prim_triangle_strip_texture+0xc0>
  106bcc:	24840010 	addiu	a0,a0,16
  106bd0:	8e490050 	lw	t1,80(s2)
  106bd4:	3402fffe 	li	v0,0xfffe
  106bd8:	00085100 	sll	t2,t0,0x4
  106bdc:	8d240024 	lw	a0,36(t1)
  106be0:	00881821 	addu	v1,a0,t0
  106be4:	0043102b 	sltu	v0,v0,v1
  106be8:	1040000c 	beqz	v0,106c1c <gsKit_prim_triangle_strip_texture+0x18c>
  106bec:	240d000e 	li	t5,14
  106bf0:	3c021000 	lui	v0,0x1000
  106bf4:	8d250008 	lw	a1,8(t1)
  106bf8:	00821025 	or	v0,a0,v0
  106bfc:	ad200024 	sw	zero,36(t1)
  106c00:	8d240020 	lw	a0,32(t1)
  106c04:	0002103c 	dsll32	v0,v0,0x0
  106c08:	24a30010 	addiu	v1,a1,16
  106c0c:	0002103e 	dsrl32	v0,v0,0x0
  106c10:	ad230008 	sw	v1,8(t1)
  106c14:	fc820000 	sd	v0,0(a0)
  106c18:	ad250020 	sw	a1,32(t1)
  106c1c:	8d230014 	lw	v1,20(t1)
  106c20:	2402000b 	li	v0,11
  106c24:	50620009 	beql	v1,v0,106c4c <gsKit_prim_triangle_strip_texture+0x1bc>
  106c28:	8e440050 	lw	a0,80(s2)
  106c2c:	506d0007 	beql	v1,t5,106c4c <gsKit_prim_triangle_strip_texture+0x1bc>
  106c30:	8e440050 	lw	a0,80(s2)
  106c34:	8d220018 	lw	v0,24(t1)
  106c38:	8d23001c 	lw	v1,28(t1)
  106c3c:	dc440000 	ld	a0,0(v0)
  106c40:	00641825 	or	v1,v1,a0
  106c44:	fc430000 	sd	v1,0(v0)
  106c48:	8e440050 	lw	a0,80(s2)
  106c4c:	25070001 	addiu	a3,t0,1
  106c50:	ad20001c 	sw	zero,28(t1)
  106c54:	35068000 	ori	a2,t0,0x8000
  106c58:	8c820024 	lw	v0,36(a0)
  106c5c:	34058000 	li	a1,0x8000
  106c60:	00052b7c 	dsll32	a1,a1,0xd
  106c64:	8c83001c 	lw	v1,28(a0)
  106c68:	00c52825 	or	a1,a2,a1
  106c6c:	00471021 	addu	v0,v0,a3
  106c70:	ac8d0014 	sw	t5,20(a0)
  106c74:	24630001 	addiu	v1,v1,1
  106c78:	ac820024 	sw	v0,36(a0)
  106c7c:	ac83001c 	sw	v1,28(a0)
  106c80:	254a0010 	addiu	t2,t2,16
  106c84:	8c830008 	lw	v1,8(a0)
  106c88:	2402000e 	li	v0,14
  106c8c:	8d280008 	lw	t0,8(t1)
  106c90:	0060382d 	move	a3,v1
  106c94:	8e6d001c 	lw	t5,28(s3)
  106c98:	fce50000 	sd	a1,0(a3)
  106c9c:	006a1821 	addu	v1,v1,t2
  106ca0:	24e70008 	addiu	a3,a3,8
  106ca4:	ac830008 	sw	v1,8(a0)
  106ca8:	fce20000 	sd	v0,0(a3)
  106cac:	24e70008 	addiu	a3,a3,8
  106cb0:	15a0005a 	bnez	t5,106e1c <gsKit_prim_triangle_strip_texture+0x38c>
  106cb4:	ad280018 	sw	t0,24(t1)
  106cb8:	8e620018 	lw	v0,24(s3)
  106cbc:	0160302d 	move	a2,t3
  106cc0:	9e65000c 	lwu	a1,12(s3)
  106cc4:	000636b8 	dsll	a2,a2,0x1a
  106cc8:	00021202 	srl	v0,v0,0x8
  106ccc:	92630008 	lbu	v1,8(s3)
  106cd0:	0002103c 	dsll32	v0,v0,0x0
  106cd4:	00052bb8 	dsll	a1,a1,0xe
  106cd8:	0002103e 	dsrl32	v0,v0,0x0
  106cdc:	00031d38 	dsll	v1,v1,0x14
  106ce0:	00451025 	or	v0,v0,a1
  106ce4:	0180202d 	move	a0,t4
  106ce8:	00431025 	or	v0,v0,v1
  106cec:	8e480098 	lw	t0,152(s2)
  106cf0:	00461025 	or	v0,v0,a2
  106cf4:	92630009 	lbu	v1,9(s3)
  106cf8:	000427b8 	dsll	a0,a0,0x1e
  106cfc:	000828bc 	dsll32	a1,t0,0x2
  106d00:	00441025 	or	v0,v0,a0
  106d04:	00031dfc 	dsll32	v1,v1,0x17
  106d08:	00451025 	or	v0,v0,a1
  106d0c:	00431025 	or	v0,v0,v1
  106d10:	fce20000 	sd	v0,0(a3)
  106d14:	0100182d 	move	v1,t0
  106d18:	8e420090 	lw	v0,144(s2)
  106d1c:	000319b8 	dsll	v1,v1,0x6
  106d20:	8e440094 	lw	a0,148(s2)
  106d24:	24e70008 	addiu	a3,a3,8
  106d28:	8e45008c 	lw	a1,140(s2)
  106d2c:	00021178 	dsll	v0,v0,0x5
  106d30:	00431025 	or	v0,v0,v1
  106d34:	000421f8 	dsll	a0,a0,0x7
  106d38:	00051a78 	dsll	v1,a1,0x9
  106d3c:	00441025 	or	v0,v0,a0
  106d40:	00431025 	or	v0,v0,v1
  106d44:	24a50006 	addiu	a1,a1,6
  106d48:	24030114 	li	v1,276
  106d4c:	fce50000 	sd	a1,0(a3)
  106d50:	00431025 	or	v0,v0,v1
  106d54:	24e70008 	addiu	a3,a3,8
  106d58:	fce20000 	sd	v0,0(a3)
  106d5c:	0000502d 	move	t2,zero
  106d60:	24e70008 	addiu	a3,a3,8
  106d64:	24020001 	li	v0,1
  106d68:	fce00000 	sd	zero,0(a3)
  106d6c:	24e70008 	addiu	a3,a3,8
  106d70:	fcf40000 	sd	s4,0(a3)
  106d74:	24e70008 	addiu	a3,a3,8
  106d78:	fce20000 	sd	v0,0(a3)
  106d7c:	1a00001b 	blez	s0,106dec <gsKit_prim_triangle_strip_texture+0x35c>
  106d80:	24e70008 	addiu	a3,a3,8
  106d84:	0015403c 	dsll32	t0,s5,0x0
  106d88:	01e0482d 	move	t1,t7
  106d8c:	240c0003 	li	t4,3
  106d90:	240b0005 	li	t3,5
  106d94:	00000000 	nop
  106d98:	8d24000c 	lw	a0,12(t1)
  106d9c:	254a0004 	addiu	t2,t2,4
  106da0:	8d250008 	lw	a1,8(t1)
  106da4:	0150302a 	slt	a2,t2,s0
  106da8:	8d220004 	lw	v0,4(t1)
  106dac:	00042438 	dsll	a0,a0,0x10
  106db0:	8d230000 	lw	v1,0(t1)
  106db4:	00a42825 	or	a1,a1,a0
  106db8:	00021438 	dsll	v0,v0,0x10
  106dbc:	fce50000 	sd	a1,0(a3)
  106dc0:	00621825 	or	v1,v1,v0
  106dc4:	24e70008 	addiu	a3,a3,8
  106dc8:	fcec0000 	sd	t4,0(a3)
  106dcc:	00681825 	or	v1,v1,t0
  106dd0:	24e70008 	addiu	a3,a3,8
  106dd4:	25290010 	addiu	t1,t1,16
  106dd8:	fce30000 	sd	v1,0(a3)
  106ddc:	24e70008 	addiu	a3,a3,8
  106de0:	fceb0000 	sd	t3,0(a3)
  106de4:	14c0ffec 	bnez	a2,106d98 <gsKit_prim_triangle_strip_texture+0x308>
  106de8:	24e70008 	addiu	a3,a3,8
  106dec:	01c0e82d 	move	sp,t6
  106df0:	03c0e82d 	move	sp,s8
  106df4:	dfbf0090 	ld	ra,144(sp)
  106df8:	dfbe0080 	ld	s8,128(sp)
  106dfc:	dfb50070 	ld	s5,112(sp)
  106e00:	dfb40060 	ld	s4,96(sp)
  106e04:	dfb30050 	ld	s3,80(sp)
  106e08:	dfb20040 	ld	s2,64(sp)
  106e0c:	dfb10030 	ld	s1,48(sp)
  106e10:	dfb00020 	ld	s0,32(sp)
  106e14:	03e00008 	jr	ra
